(lp1
S'wind'
p2
aS'explosion'
p3
aS'music'
p4
aS'sex'
p5
aS'scream'
p6
aS'piano'
p7
aS'thunder'
p8
aS'cartoon'
p9
aS'beep'
p10
aS'rain'
p11
aS'footsteps'
p12
aS'bell'
p13
aS'punch'
p14
aS'woosh'
p15
aS'horror'
p16
aS'swoosh'
p17
aS'fire'
p18
aS'whoosh'
p19
aS'car'
p20
aS'click'
p21
aS'water'
p22
aS'magic'
p23
aS'ding'
p24
aS'game'
p25
aS'birds'
p26
aS'boom'
p27
aS'intro'
p28
aS'gun'
p29
aS'door'
p30
aS'hit'
p31
aS'jump'
p32
aS'pop'
p33
aS'alarm'
p34
aS'guitar'
p35
aS'laser'
p36
aS'crash'
p37
aS'fart'
p38
aS'happy'
p39
aS'crowd'
p40
aS'forest'
p41
aS'splash'
p42
aS'sword'
p43
aS'drum'
p44
aS'ambient'
p45
aS'running'
p46
aS'laugh'
p47
aS'bass'
p48
aS'steps'
p49
aS'impact'
p50
aS'clock'
p51
aS'applause'
p52
aS'space'
p53
aS'button'
p54
aS'train'
p55
aS'walking'
p56
aS'cat'
p57
aS'heartbeat'
p58
aS'bird'
p59
aS'metal'
p60
aS'whistle'
p61
aS'kick'
p62
aS'radio'
p63
aS'nature'
p64
aS'coin'
p65
aS'office'
p66
aS'suspense'
p67
aS'dog'
p68
aS'horse'
p69
aS'drop'
p70
aS'gun shot'
p71
aS'sea'
p72
aS'bomb'
p73
aS'boing'
p74
aS'thud'
p75
aS'scratch'
p76
aS'gunshot'
p77
aS'footstep'
p78
aS'clap'
p79
aS'game over'
p80
aS'paper'
p81
aS'glass'
p82
aS'siren'
p83
aS'robot'
p84
aS'scary'
p85
aS'win'
p86
aS'violin'
p87
aS'voice'
p88
aS'fall'
p89
aS'horn'
p90
aS'transition'
p91
aS'orgasm'
p92
aS'fight'
p93
aS'city'
p94
aS'car crash'
p95
aS'loop'
p96
aS'electricity'
p97
aS'ocean'
p98
aS'war'
p99
aS'jingle'
p100
aS'glitch'
p101
aS'news'
p102
aS'funny'
p103
aS'gong'
p104
aS'trumpet'
p105
aS'background music'
p106
aS'waves'
p107
aS'tv'
p108
aS'cinematic'
p109
aS'drums'
p110
aS'swish'
p111
aS'falling'
p112
aS'jazz'
p113
aS'snare'
p114
aS'phone'
p115
aS'error'
p116
aS'breath'
p117
aS'ambience'
p118
aS'fireworks'
p119
aS'bubble'
p120
aS'walk'
p121
aS'bang'
p122
aS'shot'
p123
aS'breathing'
p124
aS'camera'
p125
aS'alert'
p126
aS'wood'
p127
aS'sad'
p128
aS'slide'
p129
aS'notification'
p130
aS'helicopter'
p131
aS'heart beat'
p132
aS'drone'
p133
aS'monster'
p134
aS'crickets'
p135
aS'beach'
p136
aS'door open'
p137
aS'rock'
p138
aS'game music'
p139
aS'vocal'
p140
aS'step'
p141
aS'zombie'
p142
aS'party'
p143
aS'slap'
p144
aS'fanfare'
p145
aS'typewriter'
p146
aS'dubstep'
p147
aS'ping'
p148
aS'choir'
p149
aS'fail'
p150
aS'underwater'
p151
aS'chime'
p152
aS'dramatic'
p153
aS'static'
p154
aS'techno'
p155
aS'police'
p156
aS'success'
p157
aS'noise'
p158
aS'storm'
p159
aS'chimes'
p160
aS'machine'
p161
aS'traffic'
p162
aS'background'
p163
aS'airplane'
p164
aS'flute'
p165
aS'water drop'
p166
aS'vinyl'
p167
aS'beat'
p168
aS'electric'
p169
aS'street'
p170
aS'jungle'
p171
aS'car horn'
p172
aS'bells'
p173
aS'rocket'
p174
aS'school bell'
p175
aS'whip'
p176
aS'countdown'
p177
aS'thump'
p178
aS'seagull'
p179
aS'run'
p180
aS'8 bit'
p181
aS'sigh'
p182
aS'cheer'
p183
aS'roar'
p184
aS'cheering'
p185
aS'seagulls'
p186
aS'money'
p187
aS'harp'
p188
aS'record scratch'
p189
aS'buzzer'
p190
aS'river'
p191
aS'lightning'
p192
aS'splat'
p193
aS'bounce'
p194
aS'creepy'
p195
aS'engine'
p196
aS'heart'
p197
aS'epic'
p198
aS'wolf'
p199
aS'computer'
p200
aS'flash'
p201
aS'crack'
p202
aS'whisper'
p203
aS'wrong'
p204
aS'video game'
p205
aS'happy music'
p206
aS'doorbell'
p207
aS'ghost'
p208
aS'typing'
p209
aS'female'
p210
aS'hey'
p211
aS'death'
p212
aS'victory'
p213
aS'smash'
p214
aS'crying'
p215
aS'hospital'
p216
aS'knife'
p217
aS'knock'
p218
aS'night'
p219
aS'shotgun'
p220
aS'keyboard'
p221
aS'percussion'
p222
aS'elevator'
p223
aS'moan'
p224
aS'fx'
p225
aS'speech'
p226
aS'trailer'
p227
aS'rewind'
p228
aS'water splash'
p229
aS'talking'
p230
aS'kiss'
p231
aS'owl'
p232
aS'machine gun'
p233
aS'eating'
p234
aS'monkey'
p235
aS'desert'
p236
aS'laughing'
p237
aS'car engine'
p238
aS'light'
p239
aS'lion'
p240
aS'tension'
p241
aS'plane'
p242
aS'yeah'
p243
aS'music box'
p244
aS'action'
p245
aS'arrow'
p246
aS'crow'
p247
aS'laughter'
p248
aS'cow'
p249
aS'phone ring'
p250
aS'battle'
p251
aS'white noise'
p252
aS'stone'
p253
aS'gasp'
p254
aS'sand'
p255
aS'air'
p256
aS'coins'
p257
aS'synth'
p258
aS'church bell'
p259
aS'ring'
p260
aS'break'
p261
aS'alien'
p262
aS'melody'
p263
aS'door slam'
p264
aS'children'
p265
aS'bicycle'
p266
aS'football'
p267
aS'people'
p268
aS'park'
p269
aS'door bell'
p270
aS'cave'
p271
aS'surprise'
p272
aS'hip hop'
p273
aS'song'
p274
aS'fly'
p275
aS'room tone'
p276
aS'shoot'
p277
aS'ball'
p278
aS'zoom'
p279
aS'hello'
p280
aS'cricket'
p281
aS'grunt'
p282
aS'baby'
p283
aS'electronic'
p284
aS'telephone'
p285
aS'police siren'
p286
aS'screaming'
p287
aS'hammer'
p288
aS'correct'
p289
aS'ambulance'
p290
aS'snow'
p291
aS'bubbles'
p292
aS'clapping'
p293
aS'rumble'
p294
aS'power up'
p295
aS'alarm clock'
p296
aS'wave'
p297
aS'airport'
p298
aS'motorcycle'
p299
aS'buzz'
p300
aS'iphone'
p301
aS'earthquake'
p302
aS'swing'
p303
aS'frog'
p304
aS'sci fi'
p305
aS'switch'
p306
aS'medieval'
p307
aS'open door'
p308
aS'shout'
p309
aS'wow'
p310
aS'pig'
p311
aS'chicken'
p312
aS'spaceship'
p313
aS'swipe'
p314
aS'pain'
p315
aS'warning'
p316
aS'foot steps'
p317
aS'angry'
p318
aS'grass'
p319
aS'meow'
p320
aS'door opening'
p321
aS'ringtone'
p322
aS'steam'
p323
aS'waterfall'
p324
aS'cry'
p325
aS'dog bark'
p326
aS'japanese'
p327
aS'woman'
p328
aS'shock'
p329
aS'sheep'
p330
aS'plop'
p331
aS'evil laugh'
p332
aS'bass drop'
p333
aS'orchestra'
p334
aS'sparkle'
p335
aS'growl'
p336
aS'pistol'
p337
aS'reverse'
p338
aS'8bit'
p339
aS'fan'
p340
aS'dragon'
p341
aS'leaves'
p342
aS'ice'
p343
aS'bar'
p344
aS'tap'
p345
aS'kitchen'
p346
aS'boat'
p347
aS'duck'
p348
aS'anime'
p349
aS'drum roll'
p350
aS'cash register'
p351
aS'kids'
p352
aS'xylophone'
p353
aS'spring'
p354
aS'bee'
p355
aS'chair'
p356
aS'cymbal'
p357
aS'love'
p358
aS'restaurant'
p359
aS'car door'
p360
aS'truck'
p361
aS'cello'
p362
aS'no'
p363
aS'audience'
p364
aS'energy'
p365
aS'smoke'
p366
aS'industrial'
p367
aS'bass drum'
p368
aS'logo'
p369
aS'writing'
p370
aS'atmosphere'
p371
aS'dream'
p372
aS'bleep'
p373
aS'blow'
p374
aS'message'
p375
aS'cannon'
p376
aS'menu'
p377
aS'trap'
p378
aS'squish'
p379
aS'dark'
p380
aS'girl'
p381
aS'elephant'
p382
aS'rap'
p383
aS'basketball'
p384
aS'bus'
p385
aS'star wars'
p386
aS'sweep'
p387
aS'squeak'
p388
aS'pencil'
p389
aS'eagle'
p390
aS'lose'
p391
aS'firework'
p392
aS'instrumental'
p393
aS'snap'
p394
aS'reggae'
p395
aS'soccer'
p396
aS'car driving'
p397
aS'blood'
p398
aS'yay'
p399
aS'stamp'
p400
aS'power down'
p401
aS'school'
p402
aS'throw'
p403
aS'stab'
p404
aS'flame'
p405
aS'zap'
p406
aS'church'
p407
aS'wings'
p408
aS'lake'
p409
aS'factory'
p410
aS'bike'
p411
aS'rope'
p412
aS'goal'
p413
aS'door close'
p414
aS'hum'
p415
aS'bite'
p416
aS'comedy'
p417
aS'startle'
p418
aS'fuck'
p419
aS'dance'
p420
aS'dinosaur'
p421
aS'effect'
p422
aS'creak'
p423
aS'sad music'
p424
aS'mouse click'
p425
aS'whale'
p426
aS'screams'
p427
aS'glass break'
p428
aS'animal'
p429
aS'digital'
p430
aS'metal hit'
p431
aS'sonar'
p432
aS'fairy'
p433
aS'rolling'
p434
aS'moaning'
p435
aS'teleport'
p436
aS'crunch'
p437
aS'voices'
p438
aS'strings'
p439
aS'book'
p440
aS'snake'
p441
aS'level up'
p442
aS'shower'
p443
aS'clock ticking'
p444
aS'vocals'
p445
aS'movie'
p446
aS'bed'
p447
aS'cute'
p448
aS'people talking'
p449
aS'jet'
p450
aS'woman scream'
p451
aS'mario'
p452
aS'clothes'
p453
aS'bing'
p454
aS'ouch'
p455
aS'circus'
p456
aS'breeze'
p457
aS'slam'
p458
aS'spin'
p459
aS'church bells'
p460
aS'chain'
p461
aS'ship'
p462
aS'morning'
p463
aS'bear'
p464
aS'yell'
p465
aS'singing'
p466
aS'thunderstorm'
p467
aS'yawn'
p468
aS'sexy'
p469
aS'shine'
p470
aS'stomp'
p471
aS'rocks'
p472
aS'drama'
p473
aS'sfx'
p474
aS'terror'
p475
aS'jumpscare'
p476
aS'burp'
p477
aS'oh'
p478
aS'cloth'
p479
aS'cough'
p480
aS'heavy breathing'
p481
aS'start'
p482
aS'bump'
p483
aS'swosh'
p484
aS'tick'
p485
aS'conversation'
p486
aS'hurt'
p487
aS'select'
p488
aS'explode'
p489
aS'room'
p490
aS'cars'
p491
aS'stadium'
p492
aS'acoustic guitar'
p493
aS'snoring'
p494
aS'bip'
p495
aS'pulse'
p496
aS'cafe'
p497
aS'dj'
p498
aS'dog barking'
p499
aS'balloon'
p500
aS'house'
p501
aS'western'
p502
aS'eat'
p503
aS'glass breaking'
p504
aS'bullet'
p505
aS'arcade'
p506
aS'ting'
p507
aS'reload'
p508
aS'summer'
p509
aS'attack'
p510
aS'gun shots'
p511
aS'blip'
p512
aS'lion roar'
p513
aS'motor'
p514
aS'fantasy'
p515
aS'television'
p516
aS'air horn'
p517
aS'wind chimes'
p518
aS'phone ringing'
p519
aS'what'
p520
aS'smack'
p521
aS'chant'
p522
aS'thriller'
p523
aS'metal door'
p524
aS'baby crying'
p525
aS'japan'
p526
aS'camera shutter'
p527
aS'tiger'
p528
aS'fighting'
p529
aS'cash'
p530
aS'giggle'
p531
aS'baseball'
p532
aS'drinking'
p533
aS'build up'
p534
aS'construction'
p535
aS'blink'
p536
aS'wheel'
p537
aS'farm'
p538
aS'soundtrack'
p539
aS'knocking'
p540
aS'tone'
p541
aS'crowd cheering'
p542
aS'spell'
p543
aS'animals'
p544
aS'meditation'
p545
aS'explosions'
p546
aS'games'
p547
aS'boo'
p548
aS'blast'
p549
aS'child'
p550
aS'slash'
p551
aS'panic'
p552
aS'rifle'
p553
aS'tambourine'
p554
aS'door knock'
p555
aS'comic'
p556
aS'slow motion'
p557
aS'keys'
p558
aS'ufo'
p559
aS'ui'
p560
aS'wind '
p561
aS'game show'
p562
aS'spray'
p563
aS'kick drum'
p564
aS'talk'
p565
aS'tree'
p566
aS'fun'
p567
aS'lazer'
p568
aS'drill'
p569
aS'organ'
p570
aS'winner'
p571
aS'speed'
p572
aS'twinkle'
p573
aS'car '
p574
aS'welcome'
p575
aS'mechanical'
p576
aS'relax'
p577
aS'appear'
p578
aS'collision'
p579
aS'help'
p580
aS'cheers'
p581
aS'horses'
p582
aS'market'
p583
aS'adventure'
p584
aS'mystery'
p585
aS'power'
p586
aS'boxing'
p587
aS'military'
p588
aS'ambiance'
p589
aS'collect'
p590
aS'slot machine'
p591
aS'game sound'
p592
aS'screech'
p593
aS'tank'
p594
aS'film'
p595
aS'electro'
p596
aS'end'
p597
aS'upbeat'
p598
aS'star'
p599
aS'beam'
p600
aS'yes'
p601
aS'cat meow'
p602
aS'whispers'
p603
aS'drip'
p604
aS'rattle'
p605
aS'gravel'
p606
aS'drag'
p607
aS'photo'
p608
aS'whispering'
p609
aS'projector'
p610
aS'tv static'
p611
aS'flying'
p612
aS'drink'
p613
aS'spark'
p614
aS'die'
p615
aS'breaking glass'
p616
aS'tribal'
p617
aS'humming'
p618
aS'huh'
p619
aS'shaker'
p620
aS'body fall'
p621
aS'steam train'
p622
aS'female voice'
p623
aS'saw'
p624
aS'mouse'
p625
aS'camera flash'
p626
aS'space ship'
p627
aS'silence'
p628
aS'breaking'
p629
aS'fish'
p630
aS'coffee'
p631
aS'motorbike'
p632
aS'grenade'
p633
aS'chainsaw'
p634
aS'fast'
p635
aS'bark'
p636
aS'fire alarm'
p637
aS'chinese'
p638
aS'stairs'
p639
aS'pick up'
p640
aS'birds chirping'
p641
aS'under water'
p642
aS'pickup'
p643
aS'bottle'
p644
aS'foot step'
p645
aS'open'
p646
aS'indian'
p647
aS'saxophone'
p648
aS'slurp'
p649
aS'hiss'
p650
aS'cut'
p651
aS'sound'
p652
aS'shutter'
p653
aS'button click'
p654
aS'hi hat'
p655
aS'scary music'
p656
aS'groan'
p657
aS'africa'
p658
aS'demon'
p659
aS'edm'
p660
aS'spinning'
p661
aS'door closing'
p662
aS'angel'
p663
aS'triangle'
p664
aS'cooking'
p665
aS'goat'
p666
aS'trance'
p667
aS'electric guitar'
p668
aS'classical'
p669
aS'rustle'
p670
aS'spooky'
p671
aS'rise'
p672
aS'score'
p673
aS'sirens'
p674
aS'cell phone'
p675
aS'cicada'
p676
aS'subway'
p677
aS'sex sounds'
p678
aS'fireball'
p679
aS'chains'
p680
aS'time'
p681
aS'broken glass'
p682
aS'stop'
p683
aS'radio static'
p684
aS'submarine'
p685
aS'lock'
p686
aS'zipper'
p687
aS'drum loop'
p688
aS'pigeon'
p689
aS'dolphin'
p690
aS'claps'
p691
aS'poof'
p692
aS'roll'
p693
aS'burning'
p694
aS'disco'
p695
aS'charge'
p696
aS'ocean waves'
p697
aS'flag'
p698
aS'warp'
p699
aS'baby cry'
p700
aS'grab'
p701
aS'tape'
p702
aS'shouting'
p703
aS'clang'
p704
aS'timer'
p705
aS'lightsaber'
p706
aS'yelling'
p707
aS'funk'
p708
aS'scare'
p709
aS'cartoon '
p710
aS'train horn'
p711
aS'guns'
p712
aS'car start'
p713
aS'pad'
p714
aS'landing'
p715
aS'item'
p716
aS'missile'
p717
aS'beer'
p718
aS'dub'
p719
aS'children playing'
p720
aS'sliding'
p721
aS'country'
p722
aS'ambient music'
p723
aS'evil'
p724
aS'fear'
p725
aS'sax'
p726
aS'marching'
p727
aS'lighter'
p728
aS'sizzle'
p729
aS'walkie talkie'
p730
aS'slime'
p731
aS'puff'
p732
aS'whistling'
p733
aS'hardstyle'
p734
aS'future'
p735
aS'text'
p736
aS'ding dong'
p737
aS'car passing'
p738
aS'snore'
p739
aS'car stop'
p740
aS'romantic'
p741
aS'neon'
p742
aS'radio tuning'
p743
aS'classroom'
p744
aS'8-bit'
p745
aS'flashback'
p746
aS'skateboard'
p747
aS'cinema'
p748
aS'golf'
p749
aS'mountain'
p750
aS'rat'
p751
aS'african'
p752
aS'celebration'
p753
aS'bow'
p754
aS'ah'
p755
aS'magical'
p756
aS'breathe'
p757
aS'gameover'
p758
aS'wolf howl'
p759
aS'playground'
p760
aS'crowd cheer'
p761
aS'elevator music'
p762
aS'hmm'
p763
aS'cigarette'
p764
aS'gear'
p765
aS'chatter'
p766
aS'kids playing'
p767
aS'window'
p768
aS'outside'
p769
aS'girl scream'
p770
aS'blues'
p771
aS'jumping'
p772
aS'acapella'
p773
aS'sneeze'
p774
aS'smoking'
p775
aS'ukulele'
p776
aS'acoustic'
p777
aS'slice'
p778
aS'ticking'
p779
aS'fireplace'
p780
aS'city ambience'
p781
aS'horror music'
p782
aS'wedding'
p783
aS'children laughing'
p784
aS'garden'
p785
aS'car alarm'
p786
aS'stomach'
p787
aS'scared'
p788
aS'liquid'
p789
aS'echo'
p790
aS'laser gun'
p791
aS'stream'
p792
aS'gulp'
p793
aS'woods'
p794
aS'gate'
p795
aS'wipe'
p796
aS'revolver'
p797
aS'eerie'
p798
aS'intro music'
p799
aS'sound effect'
p800
aS'crows'
p801
aS'arabic'
p802
aS'flap'
p803
aS'dj scratch'
p804
aS'rooster'
p805
aS'light switch'
p806
aS'pop up'
p807
aS'train whistle'
p808
aS'idea'
p809
aS'howl'
p810
aS'key'
p811
aS'box'
p812
aS'insect'
p813
aS'dramatic music'
p814
aS'scifi'
p815
aS'opening'
p816
aS'lamp'
p817
aS'trees'
p818
aS'feedback'
p819
aS'foley'
p820
aS'push'
p821
aS'gun fire'
p822
aS'tennis'
p823
aS'failure'
p824
aS'futuristic'
p825
aS'swallow'
p826
aS'calm'
p827
aS'tada'
p828
aS'brass'
p829
aS'shooting'
p830
aS'gym'
p831
aS'wrong answer'
p832
aS'table'
p833
aS'door creak'
p834
aS'crystal'
p835
aS'inception'
p836
aS'bling'
p837
aS'mud'
p838
aS'damage'
p839
aS'suspence'
p840
aS'prison'
p841
aS'rainforest'
p842
aS'dogs'
p843
aS'stretch'
p844
aS'vomit'
p845
aS'tv noise'
p846
aS'portal'
p847
aS'rubber'
p848
aS'shake'
p849
aS'gas'
p850
aS'chill'
p851
aS'male'
p852
aS'timpani'
p853
aS'cowbell'
p854
aS'driving'
p855
aS'beats'
p856
aS'chord'
p857
aS'string'
p858
aS'pen'
p859
aS'banjo'
p860
aS'fade'
p861
aS'plastic'
p862
aS'brake'
p863
aS'man scream'
p864
aS'boop'
p865
aS'retro'
p866
aS'swimming'
p867
aS'suck'
p868
aS'meat'
p869
aS'announcement'
p870
aS'race car'
p871
aS'casino'
p872
aS'bees'
p873
aS'music loop'
p874
aS'scrape'
p875
aS'loops'
p876
aS'high heels'
p877
aS'female scream'
p878
aS'scratching'
p879
aS'didgeridoo'
p880
aS'theme'
p881
aS'man'
p882
aS'interface'
p883
aS'record'
p884
aS'smile'
p885
aS'touch'
p886
aS'vinyl scratch'
p887
aS'quack'
p888
aS'go'
p889
aS'brush'
p890
aS'soundscape'
p891
aS'collapse'
p892
aS'intense'
p893
aS'sparks'
p894
aS'foot'
p895
aS'gears'
p896
aS'ending'
p897
aS'bag'
p898
aS'crush'
p899
aS'opera'
p900
aS'weapon'
p901
aS'achievement'
p902
aS'toilet'
p903
aS'burn'
p904
aS'dying'
p905
aS'happy birthday'
p906
aS'zip'
p907
aS'bonus'
p908
aS'electric shock'
p909
aS'army'
p910
aS'gunshots'
p911
aS'clock tick'
p912
aS'bloop'
p913
aS'footsteps '
p914
aS'burst'
p915
aS'shield'
p916
aS'heart monitor'
p917
aS'pool'
p918
aS'honk'
p919
aS'tractor'
p920
aS'slip'
p921
aS'human'
p922
aS'piano '
p923
aS'walking '
p924
aS'dirt'
p925
aS'sad piano'
p926
aS'sci-fi'
p927
aS'jump scare'
p928
aS'mosquito'
p929
aS'flip'
p930
aS'winter'
p931
aS'sms'
p932
aS'blade'
p933
aS'female vocal'
p934
aS'lever'
p935
aS'hawk'
p936
aS'field'
p937
aS'exhale'
p938
aS'french'
p939
aS'funny music'
p940
aS'danger'
p941
aS'vhs'
p942
aS'videogame'
p943
aS'sitar'
p944
aS'chewing'
p945
aS'trombone'
p946
aS'donkey'
p947
aS'tom'
p948
aS'kids laughing'
p949
aS'ship horn'
p950
aS'hydraulic'
p951
aS'axe'
p952
aS'telephone ring'
p953
aS'move'
p954
aS'flesh'
p955
aS'text message'
p956
aS'china'
p957
aS'train station'
p958
aS'porn'
p959
aS'action music'
p960
aS'powerup'
p961
aS'ahh'
p962
aS'running '
p963
aS'mp3'
p964
aS'pouring'
p965
aS'sing'
p966
aS'woo'
p967
aS'pirate'
p968
aS'complete'
p969
aS'pling'
p970
aS'male scream'
p971
aS'deep'
p972
aS'acid'
p973
aS'sound effects'
p974
aS'creepy music'
p975
aS'water drops'
p976
aS'raven'
p977
aS'baby laugh'
p978
aS'beeps'
p979
aS'chalk'
p980
aS'pub'
p981
aS'lullaby'
p982
aS'riser'
p983
aS'winning'
p984
aS'dun dun dun'
p985
aS'slide whistle'
p986
aS'knife stab'
p987
aS'classic'
p988
aS'short'
p989
aS'fabric'
p990
aS'swords'
p991
aS'cellphone'
p992
aS'sword fight'
p993
aS'dead'
p994
aS'inhale'
p995
aS'blowjob'
p996
aS'bongo'
p997
aS'food'
p998
aS'phone call'
p999
aS'transformers'
p1000
aS'fall down'
p1001
aS'wobble'
p1002
aS'car accident'
p1003
aS'dragging'
p1004
aS'marimba'
p1005
aS'match'
p1006
aS'tornado'
p1007
aS'chase'
p1008
aS'orchestral'
p1009
aS'songs'
p1010
aS'campfire'
p1011
aS'marker'
p1012
aS'dungeon'
p1013
aS'hardcore'
p1014
aS'vibration'
p1015
aS'reverse cymbal'
p1016
aS'forrest'
p1017
aS'metronome'
p1018
aS'wood hit'
p1019
aS'door '
p1020
aS'cowboy'
p1021
aS'clink'
p1022
aS'heaven'
p1023
aS'oh no'
p1024
aS'car brake'
p1025
aS'harmonica'
p1026
aS'broken'
p1027
aS'ticking clock'
p1028
aS'bat'
p1029
aS'shatter'
p1030
aS'plate'
p1031
aS'emergency'
p1032
aS'new york'
p1033
aS'tapping'
p1034
aS'note'
p1035
aS'water '
p1036
aS'drumroll'
p1037
aS'bush'
p1038
aS'body hit'
p1039
aS'march'
p1040
aS'spit'
p1041
aS'leather'
p1042
aS'police radio'
p1043
aS'christmas'
p1044
aS'hiphop'
p1045
aS'sample'
p1046
aS'close door'
p1047
aS'servo'
p1048
aS'dong'
p1049
aS'splatter'
p1050
aS'heavy metal'
p1051
aS'animation'
p1052
aS'finger snap'
p1053
aS'fountain'
p1054
aS'dog growl'
p1055
aS'funky'
p1056
aS'curtain'
p1057
aS'tv off'
p1058
aS'effects'
p1059
aS'spanish'
p1060
aS'accordion'
p1061
aS'page turn'
p1062
aS'insects'
p1063
aS'movement'
p1064
aS'roomtone'
p1065
aS'dropping'
p1066
aS'german'
p1067
aS'creaking'
p1068
aS'808'
p1069
aS'mmm'
p1070
aS'sleep'
p1071
aS'murmur'
p1072
aS'bong'
p1073
aS'crash cymbal'
p1074
aS'club'
p1075
aS'cell phone ring'
p1076
aS'tinnitus'
p1077
aS'metal impact'
p1078
aS'game sounds'
p1079
aS'destruction'
p1080
aS'transformer'
p1081
aS'epic music'
p1082
aS'shit'
p1083
aS'village'
p1084
aS'sliding door'
p1085
aS'fast forward'
p1086
aS'washing machine'
p1087
aS'india'
p1088
aS'hell'
p1089
aS'witch'
p1090
aS'countryside'
p1091
aS'parrot'
p1092
aS'ok'
p1093
aS'stars'
p1094
aS'flies'
p1095
aS'gun cock'
p1096
aS'happy song'
p1097
aS'rpg'
p1098
aS'drum beat'
p1099
aS'loading'
p1100
aS'running footsteps'
p1101
aS'binaural'
p1102
aS'camera click'
p1103
aS'police sirens'
p1104
aS'anvil'
p1105
aS'up'
p1106
aS'metal scrape'
p1107
aS'crackle'
p1108
aS'cool'
p1109
aS'heels'
p1110
aS'clank'
p1111
aS'guitar riff'
p1112
aS'car break'
p1113
aS'child laugh'
p1114
aS'poop'
p1115
aS'horror '
p1116
aS'incorrect'
p1117
aS'wind blowing'
p1118
aS'dripping'
p1119
aS'toy'
p1120
aS'gunfire'
p1121
aS'down'
p1122
aS'grand piano'
p1123
aS'tabla'
p1124
aS'radar'
p1125
aS'thank you'
p1126
aS'good'
p1127
aS'oh yeah'
p1128
aS'bubble pop'
p1129
aS'panting'
p1130
aS'cracking'
p1131
aS'flapping'
p1132
aS'positive'
p1133
aS'introduction'
p1134
aS'cats'
p1135
aS'tire'
p1136
aS'pipe'
p1137
aS'car starting'
p1138
aS'scissors'
p1139
aS'rock music'
p1140
aS'body'
p1141
aS'hi'
p1142
aS'pop music'
p1143
aS'cartoon music'
p1144
aS'samba'
p1145
aS'attention'
p1146
aS'drawing'
p1147
aS'girl laugh'
p1148
aS'ready'
p1149
aS'farts'
p1150
aS'radio '
p1151
aS'sting'
p1152
aS'light bulb'
p1153
aS'kissing'
p1154
aS'boxing bell'
p1155
aS'rustling'
p1156
aS'mysterious'
p1157
aS'klaxon'
p1158
aS'card'
p1159
aS'kid'
p1160
aS'highway'
p1161
aS'footsteps wood'
p1162
aS'horror scream'
p1163
aS'ricochet'
p1164
aS'soft'
p1165
aS'pip'
p1166
aS'tram'
p1167
aS'blop'
p1168
aS'wind chime'
p1169
aS'title'
p1170
aS'dogs barking'
p1171
aS'snare drum'
p1172
aS'inside car'
p1173
aS'brick'
p1174
aS'sniper'
p1175
aS'sirene'
p1176
aS'type'
p1177
aS'wink'
p1178
aS'air raid'
p1179
aS'cymbals'
p1180
aS'glass shatter'
p1181
aS'lava'
p1182
aS'censor'
p1183
aS'volcano'
p1184
aS'printer'
p1185
aS'bones'
p1186
aS'dust'
p1187
aS'windy'
p1188
aS'sport'
p1189
aS'metal '
p1190
aS'outro'
p1191
aS'fridge'
p1192
aS'question'
p1193
aS'interference'
p1194
aS'russian'
p1195
aS'ball bounce'
p1196
aS'kung fu'
p1197
aS'rhodes'
p1198
aS'howling wind'
p1199
aS'soft wind'
p1200
aS'female orgasm'
p1201
aS'riot'
p1202
aS'tick tock'
p1203
aS'holy'
p1204
aS'light rain'
p1205
aS'city night'
p1206
aS'psytrance'
p1207
aS'bone'
p1208
aS'tv '
p1209
aS'cows'
p1210
aS'champagne'
p1211
aS'classical music'
p1212
aS'guitar feedback'
p1213
aS'vacuum'
p1214
aS'minecraft'
p1215
aS'dishes'
p1216
aS'mobile phone'
p1217
aS'technology'
p1218
aS'old car'
p1219
aS'stick'
p1220
aS'old radio'
p1221
aS'torch'
p1222
aS'concert'
p1223
aS'squeek'
p1224
aS'rocket launch'
p1225
aS'count down'
p1226
aS'canon'
p1227
aS'drops'
p1228
aS'carnival'
p1229
aS'bowling'
p1230
aS'chop'
p1231
aS'propeller'
p1232
aS'piano note'
p1233
aS'race'
p1234
aS'cinematic boom'
p1235
aS'stinger'
p1236
aS'concrete'
p1237
aS'surprised'
p1238
aS'popcorn'
p1239
aS'radio noise'
p1240
aS'reverb'
p1241
aS'oriental'
p1242
aS'chorus'
p1243
aS'conga'
p1244
aS'wing'
p1245
aS'pistol shot'
p1246
aS'car drive'
p1247
aS'reveal'
p1248
aS'flames'
p1249
aS'chanting'
p1250
aS'launch'
p1251
aS'joy'
p1252
aS'jet engine'
p1253
aS'instrument'
p1254
aS'weird'
p1255
aS'horror ambience'
p1256
aS'trumpets'
p1257
aS'opening door'
p1258
aS'swimming pool'
p1259
aS'truck horn'
p1260
aS'thunder storm'
p1261
aS'boiling'
p1262
aS'debris'
p1263
aS'office ambience'
p1264
aS'cassette'
p1265
aS'freeze'
p1266
aS'desert wind'
p1267
aS'tires'
p1268
aS'mumbling'
p1269
aS'tense'
p1270
aS'grow'
p1271
aS'dance music'
p1272
aS'room ambience'
p1273
aS'sub bass'
p1274
aS'deep bass'
p1275
aS'newspaper'
p1276
aS'shovel'
p1277
aS'fishing'
p1278
aS'growing'
p1279
aS'relaxing'
p1280
aS'skate'
p1281
aS'horns'
p1282
aS'paint'
p1283
aS'squelch'
p1284
aS'airhorn'
p1285
aS'dinner'
p1286
aS'sports'
p1287
aS'latin'
p1288
aS'soft music'
p1289
aS'machinery'
p1290
aS'home'
p1291
aS'wake up'
p1292
aS'shuffle'
p1293
aS'dark ambient'
p1294
aS'bam'
p1295
aS'glitter'
p1296
aS'sex '
p1297
aS'hair'
p1298
aS'water dripping'
p1299
aS'falling down'
p1300
aS'microwave'
p1301
aS'birthday'
p1302
aS'film projector'
p1303
aS'unlock'
p1304
aS'creek'
p1305
aS'male voice'
p1306
aS'count'
p1307
aS'mystic'
p1308
aS'squirt'
p1309
aS'kill'
p1310
aS'point'
p1311
aS'fox'
p1312
aS'protest'
p1313
aS'wood break'
p1314
aS'finish'
p1315
aS'rising'
p1316
aS'explotion'
p1317
aS'women'
p1318
aS'digging'
p1319
aS'cicadas'
p1320
aS'cling'
p1321
aS'pinball'
p1322
aS'dice'
p1323
aS'clown'
p1324
aS'gore'
p1325
aS'people screaming'
p1326
aS'fog horn'
p1327
aS'forest night'
p1328
aS'destroy'
p1329
aS'record player'
p1330
aS'facebook'
p1331
aS'road'
p1332
aS'toilet flush'
p1333
aS'lick'
p1334
aS'shimmer'
p1335
aS'sun'
p1336
aS'slow'
p1337
aS'squeeze'
p1338
aS'write'
p1339
aS'leaf'
p1340
aS'stones'
p1341
aS'crashing'
p1342
aS'wooden door'
p1343
aS'psycho'
p1344
aS'bathroom'
p1345
aS'sniff'
p1346
aS'moving'
p1347
aS'armor'
p1348
aS'pour'
p1349
aS'hover'
p1350
aS'bats'
p1351
aS'tune'
p1352
aS'building'
p1353
aS'ringing'
p1354
aS'night forest'
p1355
aS'ooh'
p1356
aS'halloween'
p1357
aS'base'
p1358
aS'rain '
p1359
aS'light wind'
p1360
aS'transform'
p1361
aS'car screech'
p1362
aS'grandfather clock'
p1363
aS'tropical'
p1364
aS'magic wand'
p1365
aS'frogs'
p1366
aS'jail'
p1367
aS'game start'
p1368
aS'scan'
p1369
aS'crescendo'
p1370
aS'soldier'
p1371
aS'mechanic'
p1372
aS'horse '
p1373
aS'moto'
p1374
aS'metal crash'
p1375
aS'commercial'
p1376
aS'wind trees'
p1377
aS'swoop'
p1378
aS'metallic'
p1379
aS'accident'
p1380
aS'tic tac'
p1381
aS'industry'
p1382
aS'button press'
p1383
aS'cup'
p1384
aS'can'
p1385
aS'generator'
p1386
aS'build'
p1387
aS'pee'
p1388
aS'crazy'
p1389
aS'boat horn'
p1390
aS'city traffic'
p1391
aS'signal'
p1392
aS'lift'
p1393
aS'light saber'
p1394
aS'library'
p1395
aS'i love you'
p1396
aS'glasses'
p1397
aS'iron'
p1398
aS'forest ambience'
p1399
aS'female laugh'
p1400
aS'drawer'
p1401
aS'page'
p1402
aS'guitar '
p1403
aS'transitions'
p1404
aS'native american'
p1405
aS'friction'
p1406
aS'cart'
p1407
aS'coffee shop'
p1408
aS'jingles'
p1409
aS'call'
p1410
aS'crowd '
p1411
aS'arab'
p1412
aS'ominous'
p1413
aS'moog'
p1414
aS'bass guitar'
p1415
aS'swamp'
p1416
aS'scooter'
p1417
aS'egg'
p1418
aS'ping pong'
p1419
aS'small crowd'
p1420
aS'night ambience'
p1421
aS'bamboo'
p1422
aS'punches'
p1423
aS'meadow'
p1424
aS'punching'
p1425
aS'drop water'
p1426
aS'sucking'
p1427
aS'car stopping'
p1428
aS'engine start'
p1429
aS'laughs'
p1430
aS'shark'
p1431
aS'chirp'
p1432
aS'funeral'
p1433
aS'magic '
p1434
aS'cuckoo'
p1435
aS'hero'
p1436
aS'tv show'
p1437
aS'hand clap'
p1438
aS'chew'
p1439
aS'pan'
p1440
aS'clarinet'
p1441
aS'heavy rain'
p1442
aS'piano notes'
p1443
aS'man screaming'
p1444
aS'catch'
p1445
aS'walla'
p1446
aS'minimal'
p1447
aS'pow'
p1448
aS'cartoon voice'
p1449
aS'hand'
p1450
aS'car sound'
p1451
aS'blender'
p1452
aS'jackpot'
p1453
aS'pong'
p1454
aS'charging'
p1455
aS'magic spell'
p1456
aS'diving'
p1457
aS'strike'
p1458
aS'earth'
p1459
aS'swell'
p1460
aS'shot gun'
p1461
aS'ninja'
p1462
aS'dial tone'
p1463
aS'city sounds'
p1464
aS'harbor'
p1465
aS'laught'
p1466
aS'change'
p1467
aS'fast car'
p1468
aS'trash'
p1469
aS'mumble'
p1470
aS'sea waves'
p1471
aS'blaster'
p1472
aS'thunder '
p1473
aS'rub'
p1474
aS'intercom'
p1475
aS'bug'
p1476
aS'movie trailer'
p1477
aS'steel'
p1478
aS'atmospheric'
p1479
aS'tech'
p1480
aS'glockenspiel'
p1481
aS'robotic'
p1482
aS'struggle'
p1483
aS'children laugh'
p1484
aS'oh my god'
p1485
aS'spider'
p1486
aS'blowing'
p1487
aS'time travel'
p1488
aS'car interior'
p1489
aS'suction'
p1490
aS'woman screaming'
p1491
aS'cards'
p1492
aS'zombies'
p1493
aS'batman'
p1494
aS'game loop'
p1495
aS'bulb'
p1496
aS'metro'
p1497
aS'bubbling'
p1498
aS'wall'
p1499
aS'city '
p1500
aS'rifle shot'
p1501
aS'high pitch'
p1502
aS'footsteps concrete'
p1503
aS'counting'
p1504
aS'data'
p1505
aS'monster roar'
p1506
aS'fucking'
p1507
aS'flyby'
p1508
aS'chiptune'
p1509
aS'karate'
p1510
aS'guitar chord'
p1511
aS'balloon pop'
p1512
aS'bouncing'
p1513
aS'check'
p1514
aS'supermarket'
p1515
aS'swim'
p1516
aS'metal drop'
p1517
aS'deep breath'
p1518
aS'branch'
p1519
aS'science'
p1520
aS'chords'
p1521
aS'whip crack'
p1522
aS'skid'
p1523
aS'flutter'
p1524
aS'video games'
p1525
aS'psychedelic'
p1526
aS'laboratory'
p1527
aS'wosh'
p1528
aS'hihat'
p1529
aS'explosion '
p1530
aS'modem'
p1531
aS'piano music'
p1532
aS'tuba'
p1533
aS'strong wind'
p1534
aS'rotation'
p1535
aS'wind blow'
p1536
aS'zoo'
p1537
aS'lounge'
p1538
aS'deep house'
p1539
aS'shaking'
p1540
aS'dog '
p1541
aS'nasa'
p1542
aS'racing'
p1543
aS'door squeak'
p1544
aS'football crowd'
p1545
aS'bonfire'
p1546
aS'game win'
p1547
aS'wilhelm scream'
p1548
aS'cha ching'
p1549
aS'sitting'
p1550
aS'wav'
p1551
aS'counter'
p1552
aS'thinking'
p1553
aS'lost'
p1554
aS'bullet hit'
p1555
aS'moo'
p1556
aS'painting'
p1557
aS'steps '
p1558
aS'gibberish'
p1559
aS'phone vibrate'
p1560
aS'candle'
p1561
aS'hammering'
p1562
aS'metal clang'
p1563
aS'aplause'
p1564
aS'whales'
p1565
aS'soul'
p1566
aS'sword hit'
p1567
aS'hat'
p1568
aS'email'
p1569
aS'cock'
p1570
aS'cutlery'
p1571
aS'scary sounds'
p1572
aS'game background'
p1573
aS'glass smash'
p1574
aS'air raid siren'
p1575
aS'creature'
p1576
aS'cutting'
p1577
aS'living room'
p1578
aS'abstract'
p1579
aS'speak'
p1580
aS'distortion'
p1581
aS'aircraft'
p1582
aS'tree falling'
p1583
aS'choking'
p1584
aS'old clock'
p1585
aS'bass '
p1586
aS'firecracker'
p1587
aS'puppy'
p1588
aS'monster scream'
p1589
aS'chat'
p1590
aS'smartphone'
p1591
aS'music '
p1592
aS'applaus'
p1593
aS'star trek'
p1594
aS'jaws'
p1595
aS'cat '
p1596
aS'thunder clap'
p1597
aS'festival'
p1598
aS'whatsapp'
p1599
aS'gaming'
p1600
aS'voicemail'
p1601
aS'mobile'
p1602
aS'crowd laugh'
p1603
aS'texting'
p1604
aS'devil'
p1605
aS'windchimes'
p1606
aS'god'
p1607
aS'ow'
p1608
aS'news intro'
p1609
aS'bull'
p1610
aS'italian'
p1611
aS'body falling'
p1612
aS'rabbit'
p1613
aS'skin'
p1614
aS'rip'
p1615
aS'shoes'
p1616
aS'ground'
p1617
aS'ambient '
p1618
aS'bass hit'
p1619
aS'flight'
p1620
aS'drowning'
p1621
aS'buzzing'
p1622
aS'closing door'
p1623
aS'turntable'
p1624
aS'argument'
p1625
aS'microphone'
p1626
aS'kalimba'
p1627
aS'electronic music'
p1628
aS'cartoon sounds'
p1629
aS'chomp'
p1630
aS'robot voice'
p1631
aS'keyboard typing'
p1632
aS'water drip'
p1633
aS'old phone'
p1634
aS'door shut'
p1635
aS'birdsong'
p1636
aS'glow'
p1637
aS'wtf'
p1638
aS'old tv'
p1639
aS'door handle'
p1640
aS'sweet'
p1641
aS'fire '
p1642
aS'birds '
p1643
aS'seagul'
p1644
aS'artillery'
p1645
aS'scanner'
p1646
aS'wet'
p1647
aS'pull'
p1648
aS'whoop'
p1649
aS'clicking'
p1650
aS'carpet'
p1651
aS'speaking'
p1652
aS'wood door'
p1653
aS'fuck you'
p1654
aS'woodpecker'
p1655
aS'calm music'
p1656
aS'old man'
p1657
aS'mlg'
p1658
aS'windows'
p1659
aS'plastic bag'
p1660
aS'creaking door'
p1661
aS'space music'
p1662
aS'singing bowl'
p1663
aS'beeping'
p1664
aS'drunk'
p1665
aS'laser shot'
p1666
aS'answering machine'
p1667
aS'sub'
p1668
aS'bad'
p1669
aS'demolition'
p1670
aS'small explosion'
p1671
aS'bird wings'
p1672
aS'moans'
p1673
aS'theremin'
p1674
aS'game '
p1675
aS'harbour'
p1676
aS'nervous'
p1677
aS'sounds'
p1678
aS'dnb'
p1679
aS'ak47'
p1680
aS'city noise'
p1681
aS'happy '
p1682
aS'sleeping'
p1683
aS'flicker'
p1684
aS'rumbling'
p1685
aS'sudden'
p1686
aS'mechanism'
p1687
aS'stabbing'
p1688
aS'morning birds'
p1689
aS'water fall'
p1690
aS'boots'
p1691
aS'heavy door'
p1692
aS'bass kick'
p1693
aS'girls'
p1694
aS'clunk'
p1695
aS'press'
p1696
aS'bike bell'
p1697
aS'splashing'
p1698
aS'apple'
p1699
aS'toast'
p1700
aS'folk'
p1701
aS'remix'
p1702
aS'squash'
p1703
aS'gewitter'
p1704
aS'pluck'
p1705
aS'taiko'
p1706
aS'doors'
p1707
aS'ta da'
p1708
aS'fun music'
p1709
aS'block'
p1710
aS'dancing'
p1711
aS'gold'
p1712
aS'deer'
p1713
aS'omg'
p1714
aS'clash'
p1715
aS'whack'
p1716
aS'confused'
p1717
aS'barking'
p1718
aS'vibrate'
p1719
aS'fire crackling'
p1720
aS'suspense music'
p1721
aS'tibetan'
p1722
aS'tear'
p1723
aS'turbine'
p1724
aS'brakes'
p1725
aS'beatbox'
p1726
aS'nuclear'
p1727
aS'banging'
p1728
aS'sword swing'
p1729
aS'funny sounds'
p1730
aS'town'
p1731
aS'hardstyle kick'
p1732
aS'bright'
p1733
aS'scribble'
p1734
aS'help me'
p1735
aS'background noise'
p1736
aS'gun '
p1737
aS'popping'
p1738
aS'hotel'
p1739
aS'mouth'
p1740
aS'radio jingle'
p1741
aS'grind'
p1742
aS'scale'
p1743
aS'dive'
p1744
aS'car brakes'
p1745
aS'climax'
p1746
aS'crowd scream'
p1747
aS'sad song'
p1748
aS'throwing'
p1749
aS'rotate'
p1750
aS'outdoor'
p1751
aS'loud'
p1752
aS'piano loop'
p1753
aS'uh'
p1754
aS'angels'
p1755
aS'anger'
p1756
aS'aliens'
p1757
aS'boost'
p1758
aS'tire screech'
p1759
aS'phone '
p1760
aS'bouncing ball'
p1761
aS'shop'
p1762
aS'ice cream'
p1763
aS'120 bpm'
p1764
aS'boiling water'
p1765
aS'flashlight'
p1766
aS'shut down'
p1767
aS'marble'
p1768
aS'clatter'
p1769
aS'lights'
p1770
aS'clack'
p1771
aS'asian'
p1772
aS'groove'
p1773
aS'shots'
p1774
aS'peep'
p1775
aS'cheering crowd'
p1776
aS'soda'
p1777
aS'ring tone'
p1778
aS'seaside'
p1779
aS'scary '
p1780
aS'ching'
p1781
aS'crowds'
p1782
aS'electrical'
p1783
aS'coughing'
p1784
aS'news jingle'
p1785
aS'pokemon'
p1786
aS'close'
p1787
aS'garage'
p1788
aS'straw'
p1789
aS'power off'
p1790
aS'clothing'
p1791
aS'running water'
p1792
aS'car motor'
p1793
aS'pick'
p1794
aS'happy piano'
p1795
aS'right'
p1796
aS'shining'
p1797
aS'bgm'
p1798
aS'store'
p1799
aS'celebrate'
p1800
aS'chaos'
p1801
aS'car honk'
p1802
aS'nightmare'
p1803
aS'negative'
p1804
aS'synthesizer'
p1805
aS'car hit'
p1806
aS'hungry'
p1807
aS'trumpet '
p1808
aS'excited'
p1809
aS'london'
p1810
aS'blizzard'
p1811
aS'chopping'
p1812
aS'pouring water'
p1813
aS'prayer'
p1814
aS'crank'
p1815
aS'level'
p1816
aS'radio chatter'
p1817
aS'city street'
p1818
aS'monkeys'
p1819
aS'formula 1'
p1820
aS'lightning strike'
p1821
aS'big ben'
p1822
aS'barefoot'
p1823
aS'djembe'
p1824
aS'hockey'
p1825
aS'sparkles'
p1826
aS'squirrel'
p1827
aS'angelic'
p1828
aS'draw'
p1829
aS'teeth'
p1830
aS'arguing'
p1831
aS'light flicker'
p1832
aS'pasos'
p1833
aS'lighting'
p1834
aS'phone dial'
p1835
aS'tunnel'
p1836
aS'peace'
p1837
aS'steam engine'
p1838
aS'gorilla'
p1839
aS'ride'
p1840
aS'fuse'
p1841
aS'gust'
p1842
aS'crowd laughing'
p1843
aS'sad violin'
p1844
aS'glass '
p1845
aS'angry man'
p1846
aS'foghorn'
p1847
aS'ball rolling'
p1848
aS'footsteps grass'
p1849
aS'turn'
p1850
aS'aww'
p1851
aS'screem'
p1852
aS'show'
p1853
aS'sad trombone'
p1854
aS'bomb explosion'
p1855
aS'wheels'
p1856
aS'soldiers'
p1857
aS'car race'
p1858
aS'grill'
p1859
aS'car horns'
p1860
aS'cork'
p1861
aS'done'
p1862
aS'slot'
p1863
aS'crowd screaming'
p1864
aS'marbles'
p1865
aS'cloud'
p1866
aS'scary sound'
p1867
aS'car rev'
p1868
aS'cinematic hit'
p1869
aS'gun reload'
p1870
aS'roller coaster'
p1871
aS'bird song'
p1872
aS'hm'
p1873
aS'urban'
p1874
aS'backspin'
p1875
aS'watch'
p1876
aS'train '
p1877
aS'gun shoot'
p1878
aS'yle'
p1879
aS'80s'
p1880
aS'bell ring'
p1881
aS'wood creak'
p1882
aS'doom'
p1883
aS'zen'
p1884
aS'computer beep'
p1885
aS'wood block'
p1886
aS'faucet'
p1887
aS'mail'
p1888
aS'ha'
p1889
aS'kettle'
p1890
aS'body impact'
p1891
aS'climbing'
p1892
aS'phone beep'
p1893
aS'spoon'
p1894
aS'automatic door'
p1895
aS'scary scream'
p1896
aS'falling '
p1897
aS'car skid'
p1898
aS'oops'
p1899
aS'laser beam'
p1900
aS'car pass'
p1901
aS'blob'
p1902
aS'snare roll'
p1903
aS'hall'
p1904
aS'cold'
p1905
aS'rolling ball'
p1906
aS'castle'
p1907
aS'raining'
p1908
aS'super mario'
p1909
aS'flapping wings'
p1910
aS'lol'
p1911
aS'muffled'
p1912
aS'ski'
p1913
aS'chickens'
p1914
aS'science fiction'
p1915
aS'windmill'
p1916
aS'acceleration'
p1917
aS'sex sound'
p1918
aS'metal creak'
p1919
aS'plasma'
p1920
aS'neon light'
p1921
aS'roulette'
p1922
aS'bird flap'
p1923
aS'emotional'
p1924
aS'beast'
p1925
aS'dubstep snare'
p1926
aS'carriage'
p1927
aS'party music'
p1928
aS'turn on'
p1929
aS'butterfly'
p1930
aS'happy sound'
p1931
aS'sonic boom'
p1932
aS'harley'
p1933
aS'street ambience'
p1934
aS'dreamy'
p1935
aS'cartoon fall'
p1936
aS'land'
p1937
aS'couch'
p1938
aS'murder'
p1939
aS'corporate'
p1940
aS'girl crying'
p1941
aS'pump'
p1942
aS'crane'
p1943
aS'heavy footsteps'
p1944
aS'paris'
p1945
aS'crowd noise'
p1946
aS'laugh track'
p1947
aS'seal'
p1948
aS'v8'
p1949
aS'police car'
p1950
aS'health'
p1951
aS'horror sound'
p1952
aS'silly'
p1953
aS'sailing'
p1954
aS'wilhelm'
p1955
aS'old'
p1956
aS'greek'
p1957
aS'mexican'
p1958
aS'heavy'
p1959
aS'dig'
p1960
aS'field recording'
p1961
aS'elevator ding'
p1962
aS'angry crowd'
p1963
aS'rubbing'
p1964
aS'drum '
p1965
aS'nintendo'
p1966
aS'construction site'
p1967
aS'police '
p1968
aS'avalanche'
p1969
aS'torture'
p1970
aS'car door open'
p1971
aS'sip'
p1972
aS'wing flap'
p1973
aS'basement'
p1974
aS'ugh'
p1975
aS'bit'
p1976
aS'empty room'
p1977
aS'ukelele'
p1978
aS'peeing'
p1979
aS'ice cream truck'
p1980
aS'ethnic'
p1981
aS'jogging'
p1982
aS'knock door'
p1983
aS'horror sounds'
p1984
aS'intense music'
p1985
aS'heartbeat '
p1986
aS'spoken word'
p1987
aS'pew'
p1988
aS'guitar loop'
p1989
aS'startup'
p1990
aS'breaking news'
p1991
aS'woman voice'
p1992
aS'car braking'
p1993
aS'woman crying'
p1994
aS'fruit'
p1995
aS'people running'
p1996
aS'wind tunnel'
p1997
aS'tiger roar'
p1998
aS'motion'
p1999
aS'work'
p2000
aS'mystical'
p2001
aS'elevator door'
p2002
aS'electric motor'
p2003
aS'cartoons'
p2004
aS'snarl'
p2005
aS'censor beep'
p2006
aS'car inside'
p2007
aS'lightbulb'
p2008
aS'electric buzz'
p2009
aS'flush'
p2010
aS'museum'
p2011
aS'tribal drums'
p2012
aS'gallop'
p2013
aS'amen break'
p2014
aS'quiet'
p2015
aS'ambient loop'
p2016
aS'pacman'
p2017
aS'turn off'
p2018
aS'dialogue'
p2019
aS'rollercoaster'
p2020
aS'baseball bat'
p2021
aS'double bass'
p2022
aS'piano melody'
p2023
aS'golpe'
p2024
aS'tavern'
p2025
aS'horse neigh'
p2026
aS'piano key'
p2027
aS'drum kit'
p2028
aS'hitting'
p2029
aS'peaceful'
p2030
aS'tv on'
p2031
aS'skype'
p2032
aS'ratchet'
p2033
aS'announcer'
p2034
aS'meteor'
p2035
aS'wind howling'
p2036
aS'drum fill'
p2037
aS'light on'
p2038
aS'trumpet fanfare'
p2039
aS'flamenco'
p2040
aS'triumph'
p2041
aS'tape rewind'
p2042
aS'vinyl crackle'
p2043
aS'bowl'
p2044
aS'dragon roar'
p2045
aS'bird chirp'
p2046
aS'goa'
p2047
aS'rock guitar'
p2048
aS'lets go'
p2049
aS'pigs'
p2050
aS'sword slash'
p2051
aS'bucket'
p2052
aS'car beep'
p2053
aS'brazil'
p2054
aS'old door'
p2055
aS'sparkling'
p2056
aS'rimshot'
p2057
aS'girl laughing'
p2058
aS'woman laugh'
p2059
aS'female breathing'
p2060
aS'mine'
p2061
aS'hit metal'
p2062
aS'spanish guitar'
p2063
aS'mantra'
p2064
aS'female moan'
p2065
aS'scraping'
p2066
aS'rocks falling'
p2067
aS'woop'
p2068
aS'gull'
p2069
aS'outdoors'
p2070
aS'creepy laugh'
p2071
aS'plane crash'
p2072
aS'drift'
p2073
aS'scroll'
p2074
aS'ambulance siren'
p2075
aS'clock chime'
p2076
aS'shh'
p2077
aS'iphone ring'
p2078
aS'sword '
p2079
aS'you win'
p2080
aS'crawling'
p2081
aS'rave'
p2082
aS'turkey'
p2083
aS'dog running'
p2084
aS'car breaks'
p2085
aS'splash water'
p2086
aS'street noise'
p2087
aS'vacuum cleaner'
p2088
aS'intro '
p2089
aS'type writer'
p2090
aS'exciting'
p2091
aS'sky'
p2092
aS'locomotive'
p2093
aS'haha'
p2094
aS'pond'
p2095
aS'fluorescent'
p2096
aS'yummy'
p2097
aS'theatre'
p2098
aS'growling'
p2099
aS'cheerful'
p2100
aS'retro game'
p2101
aS'frying'
p2102
aS'motor boat'
p2103
aS'ak 47'
p2104
aS'matrix'
p2105
aS'aeroplane'
p2106
aS'sit'
p2107
aS'hurricane'
p2108
aS'john cena'
p2109
aS'stress'
p2110
aS'bird '
p2111
aS'strange'
p2112
aS'cartoon jump'
p2113
aS'cymbal roll'
p2114
aS'classic music'
p2115
aS'fiddle'
p2116
aS'bath'
p2117
aS'life'
p2118
aS'floor'
p2119
aS'inspirational'
p2120
aS'fire burning'
p2121
aS'people walking'
p2122
aS'haunted'
p2123
aS'bugs'
p2124
aS'dripping water'
p2125
aS'fight music'
p2126
aS'camel'
p2127
aS'ceiling fan'
p2128
aS'horse gallop'
p2129
aS'monk'
p2130
aS'goose'
p2131
aS'smooth'
p2132
aS'crackling'
p2133
aS'bombing'
p2134
aS'sink'
p2135
aS'dog panting'
p2136
aS'wood impact'
p2137
aS'dove'
p2138
aS'hooray'
p2139
aS'buttons'
p2140
aS'elastic'
p2141
aS'family'
p2142
aS'bell church'
p2143
aS'bicycle bell'
p2144
aS'cymbal crash'
p2145
aS'video'
p2146
aS'ambient sound'
p2147
aS'sad '
p2148
aS'joke'
p2149
aS'radio music'
p2150
aS'rubble'
p2151
aS'airport announcement'
p2152
aS'metal clank'
p2153
aS'pot'
p2154
aS'crumble'
p2155
aS'fist'
p2156
aS'wolves'
p2157
aS'swirl'
p2158
aS'wood crack'
p2159
aS'spotlight'
p2160
aS'big splash'
p2161
aS'pillow'
p2162
aS'stomping'
p2163
aS'blacksmith'
p2164
aS'take'
p2165
aS'hallelujah'
p2166
aS'footsteps running'
p2167
aS'purr'
p2168
aS'suprise'
p2169
aS'waves crashing'
p2170
aS'numbers'
p2171
aS'zing'
p2172
aS'mistery'
p2173
aS'woohoo'
p2174
aS'theater'
p2175
aS'hinge'
p2176
aS'heal'
p2177
aS'welding'
p2178
aS'jackhammer'
p2179
aS'train passing'
p2180
aS'people laughing'
p2181
aS'cinematic '
p2182
aS'tinkle'
p2183
aS'ahhh'
p2184
aS'engine rev'
p2185
aS'slow down'
p2186
aS'relief'
p2187
aS'ducks'
p2188
aS'smashing'
p2189
aS'psy'
p2190
aS'crying baby'
p2191
aS'shut up'
p2192
aS'nuke'
p2193
aS'jazz piano'
p2194
aS'kicking'
p2195
aS'bombs'
p2196
aS'happiness'
p2197
aS'hang up'
p2198
aS'scream '
p2199
aS'exclamation'
p2200
aS'battle music'
p2201
aS'pink noise'
p2202
aS'flare'
p2203
aS'plug'
p2204
aS'feet'
p2205
aS'8 bit music'
p2206
aS'hands'
p2207
aS'metal bang'
p2208
aS'sea gulls'
p2209
aS'belch'
p2210
aS'metal gate'
p2211
aS'oven'
p2212
aS'guitar solo'
p2213
aS'carousel'
p2214
aS'door knocking'
p2215
aS'woman talking'
p2216
aS'egypt'
p2217
aS'traffic jam'
p2218
aS'door open close'
p2219
aS'tools'
p2220
aS'window break'
p2221
aS'transformation'
p2222
aS'fade out'
p2223
aS'medical'
p2224
aS'coyote'
p2225
aS'hospital '
p2226
aS'port'
p2227
aS'take off'
p2228
aS'shaman'
p2229
aS'vynil'
p2230
aS'punk'
p2231
aS'country music'
p2232
aS'girl screaming'
p2233
aS'camp fire'
p2234
aS'flamethrower'
p2235
aS'angry cat'
p2236
aS'surf'
p2237
aS'computer sounds'
p2238
aS'chest'
p2239
aS'battery'
p2240
aS'texture'
p2241
aS'wings flapping'
p2242
aS'referee'
p2243
aS'viola'
p2244
aS'sizzling'
p2245
aS'ball hit'
p2246
aS'warehouse'
p2247
aS'birds flying'
p2248
aS'wine'
p2249
aS'salsa'
p2250
aS'vintage'
p2251
aS'child laughing'
p2252
aS'winter wind'
p2253
aS'crawl'
p2254
aS'stadium crowd'
p2255
aS'appearance'
p2256
aS'driving car'
p2257
aS'locked door'
p2258
aS'om'
p2259
aS'old train'
p2260
aS'room noise'
p2261
aS'bonk'
p2262
aS'slurping'
p2263
aS'open window'
p2264
aS'sewing machine'
p2265
aS'rats'
p2266
aS'female singing'
p2267
aS'amen'
p2268
aS'gavel'
p2269
aS'high five'
p2270
aS'sadness'
p2271
aS'mexico'
p2272
aS'puke'
p2273
aS'musical'
p2274
aS'racing car'
p2275
aS'motion graphics'
p2276
aS'rim shot'
p2277
aS'alarms'
p2278
aS'hit wood'
p2279
aS'sword clash'
p2280
aS'house music'
p2281
aS'internet'
p2282
aS'spoken'
p2283
aS'glass crash'
p2284
aS'little girl'
p2285
aS'shocked'
p2286
aS'giggling'
p2287
aS'fire crackle'
p2288
aS'modular'
p2289
aS'superhero'
p2290
aS'fizz'
p2291
aS'cold wind'
p2292
aS'audience laugh'
p2293
aS'combat'
p2294
aS'camera '
p2295
aS'tongue'
p2296
aS'boulder'
p2297
aS'pause'
p2298
aS'drum loops'
p2299
aS'bird flying'
p2300
aS'loop music'
p2301
aS'forest '
p2302
aS'nature sounds'
p2303
aS'plane landing'
p2304
aS'cashier'
p2305
aS'bye'
p2306
aS'car idle'
p2307
aS'news '
p2308
aS'paparazzi'
p2309
aS'wood breaking'
p2310
aS'cycling'
p2311
aS'steps wood'
p2312
aS'funny sound'
p2313
aS'trafic'
p2314
aS'sex moan'
p2315
aS'cartoon sound'
p2316
aS'trolley'
p2317
aS'spill'
p2318
aS'toaster'
p2319
aS'atmos'
p2320
aS'disappear'
p2321
aS'jazz music'
p2322
aS'coin drop'
p2323
aS'office '
p2324
aS'chuckle'
p2325
aS'leaves rustling'
p2326
aS'cardboard'
p2327
aS'celtic'
p2328
aS'man laugh'
p2329
aS'pat'
p2330
aS'child crying'
p2331
aS'grunts'
p2332
aS'electric zap'
p2333
aS'farting'
p2334
aS'shutdown'
p2335
aS'ray'
p2336
aS'battlefield'
p2337
aS'ladder'
p2338
aS'referee whistle'
p2339
aS'increase'
p2340
aS'old music'
p2341
aS'vinyl '
p2342
aS'car sounds'
p2343
aS'start game'
p2344
aS'underground'
p2345
aS'blanket'
p2346
aS'children '
p2347
aS'buildup'
p2348
aS'steel drum'
p2349
aS'diamond'
p2350
aS'annoying'
p2351
aS'claxon'
p2352
aS'correct answer'
p2353
aS'sitting down'
p2354
aS'atmo'
p2355
aS'paper '
p2356
aS'short circuit'
p2357
aS'ascending'
p2358
aS'footsteps carpet'
p2359
aS'coffee machine'
p2360
aS'nice'
p2361
aS'bagpipe'
p2362
aS'fluorescent light'
p2363
aS'amusement park'
p2364
aS'air conditioner'
p2365
aS'clock '
p2366
aS'glas'
p2367
aS'machines'
p2368
aS'dark ambience'
p2369
aS'running grass'
p2370
aS'kicks'
p2371
aS'door slamming'
p2372
aS'rocking chair'
p2373
aS'maracas'
p2374
aS'boy'
p2375
aS'thunk'
p2376
aS'words'
p2377
aS'plant'
p2378
aS'licking'
p2379
aS'cartoon pop'
p2380
aS'sobbing'
p2381
aS'grito'
p2382
aS'howling'
p2383
aS'r2d2'
p2384
aS'squeaking'
p2385
aS'gay'
p2386
aS'rhythm'
p2387
aS'temple'
p2388
aS'auto'
p2389
aS'pigeons'
p2390
aS'sinister'
p2391
aS'birds singing'
p2392
aS'war '
p2393
aS'war horn'
p2394
aS'turbo'
p2395
aS'puddle'
p2396
aS'screw'
p2397
aS'carillon'
p2398
aS'marching band'
p2399
aS'baby laughing'
p2400
aS'low'
p2401
aS'confirm'
p2402
aS'kid laugh'
p2403
aS'forest birds'
p2404
aS'metal squeak'
p2405
aS'hawaii'
p2406
aS'waiting'
p2407
aS'riff'
p2408
aS'congratulations'
p2409
aS'boink'
p2410
aS'choke'
p2411
aS'low frequency'
p2412
aS'oink'
p2413
aS'boss'
p2414
aS'magic sound'
p2415
aS'frankum'
p2416
aS'twang'
p2417
aS'glass broken'
p2418
aS'treasure'
p2419
aS'page flip'
p2420
aS'disney'
p2421
aS'skiing'
p2422
aS'breakbeat'
p2423
aS'skrillex'
p2424
aS'barrel'
p2425
aS'spray paint'
p2426
aS'whosh'
p2427
aS'girl moan'
p2428
aS'ambiente'
p2429
aS'knock knock'
p2430
aS'put'
p2431
aS'hits'
p2432
aS'knight'
p2433
aS'ferrari'
p2434
aS'dino'
p2435
aS'failed'
p2436
aS'confetti'
p2437
aS'flower'
p2438
aS'break glass'
p2439
aS'indie'
p2440
aS'thrill'
p2441
aS'masturbation'
p2442
aS'baby '
p2443
aS'minion'
p2444
aS'rasta'
p2445
aS'iphone '
p2446
aS'ritual'
p2447
aS'vox'
p2448
aS'wood crash'
p2449
aS'ice crack'
p2450
aS'app'
p2451
aS'glissando'
p2452
aS'horror ambient'
p2453
aS'phone vibration'
p2454
aS'backpack'
p2455
aS'shriek'
p2456
aS'bricks'
p2457
aS'snort'
p2458
aS'water pour'
p2459
aS'glass shattering'
p2460
aS'drum hit'
p2461
aS'viento'
p2462
aS'hit ground'
p2463
aS'tv sound'
p2464
aS'fence'
p2465
aS'outdoor ambience'
p2466
aS'needle'
p2467
aS'play'
p2468
aS'car driving away'
p2469
aS'yum'
p2470
aS'blooper'
p2471
aS'furniture'
p2472
aS'punch '
p2473
aS'baloon'
p2474
aS'frenchcore'
p2475
aS'empty'
p2476
aS'fire truck'
p2477
aS'hammer metal'
p2478
aS'female breath'
p2479
aS'interview'
p2480
aS'sit down'
p2481
aS'wind leaves'
p2482
aS'time machine'
p2483
aS'wind tree'
p2484
aS'sorry'
p2485
aS'podcast'
p2486
aS'harmony'
p2487
aS'do'
p2488
aS'rattling'
p2489
aS'breaking wood'
p2490
aS'orchestra tuning'
p2491
aS'bread'
p2492
aS'organic'
p2493
aS'bone break'
p2494
aS'yawning'
p2495
aS'branches'
p2496
aS'vocoder'
p2497
aS'bar ambience'
p2498
aS'put down'
p2499
aS'city sound'
p2500
aS'car accelerating'
p2501
aS'rage'
p2502
aS'man talking'
p2503
aS'public domain'
p2504
aS'microphone feedback'
p2505
aS'clic'
p2506
aS'busy street'
p2507
aS'kitten'
p2508
aS'clock alarm'
p2509
aS'female vocals'
p2510
aS'door creaking'
p2511
aS'hit '
p2512
aS'church organ'
p2513
aS'lawn mower'
p2514
aS'pass'
p2515
aS'crash car'
p2516
aS'mice'
p2517
aS'piano chord'
p2518
aS'toms'
p2519
aS'muslim'
p2520
aS'ear ringing'
p2521
aS'sonic'
p2522
aS'cartoon laugh'
p2523
aS'vinyl noise'
p2524
aS'violins'
p2525
aS'rain forest'
p2526
aS'war sounds'
p2527
aS'park ambience'
p2528
aS'uplifting'
p2529
aS'bullet impact'
p2530
aS'morse code'
p2531
aS'candy'
p2532
aS'climb'
p2533
aS'crowd applause'
p2534
aS'gurgle'
p2535
aS'car parking'
p2536
aS'dish'
p2537
aS'broom'
p2538
aS'spy'
p2539
aS'stroke'
p2540
aS'gun sound'
p2541
aS'tin'
p2542
aS'diesel'
p2543
aS'seaguls'
p2544
aS'timbre'
p2545
aS'bass boom'
p2546
aS'flatline'
p2547
aS'sticky'
p2548
aS'old telephone'
p2549
aS'suitcase'
p2550
aS'penguin'
p2551
aS'tea'
p2552
aS'van'
p2553
aS' music'
p2554
aS'wind gust'
p2555
aS'nature ambience'
p2556
aS'whoosh '
p2557
aS'metal guitar'
p2558
aS'creaky door'
p2559
aS'shiny'
p2560
aS'beautiful'
p2561
aS'door lock'
p2562
aS'squeaky'
p2563
aS'hope'
p2564
aS'taxi'
p2565
aS'bongos'
p2566
aS'youtube'
p2567
aS'meeting'
p2568
aS'apartment'
p2569
aS'drake'
p2570
aS'rap beat'
p2571
aS'ring bell'
p2572
aS'phone dialing'
p2573
aS'rotating'
p2574
aS'wedding bells'
p2575
aS'sea '
p2576
aS'notes'
p2577
aS'oboe'
p2578
aS'tube'
p2579
aS'space '
p2580
aS'romance'
p2581
aS'upbeat music'
p2582
aS'f1'
p2583
aS'cat purr'
p2584
aS'fill'
p2585
aS'kick '
p2586
aS'gasping'
p2587
aS'mountains'
p2588
aS'glass crack'
p2589
aS'dun'
p2590
aS'refrigerator'
p2591
aS'heat'
p2592
aS'stretching'
p2593
aS'rustling leaves'
p2594
aS'hot'
p2595
aS'aah'
p2596
aS'hard rock'
p2597
aS'aw'
p2598
aS'ball bouncing'
p2599
aS'steam whistle'
p2600
aS'background sound'
p2601
aS'horror movie'
p2602
aS'cinematic bass'
p2603
aS'booing'
p2604
aS'waterdrop'
p2605
aS'bottles'
p2606
aS'mixer'
p2607
aS'whimper'
p2608
aS'ignition'
p2609
aS'tweet'
p2610
aS'party horn'
p2611
aS'zelda'
p2612
aS'russia'
p2613
aS'bassline'
p2614
aS'giant'
p2615
aS'satellite'
p2616
aS'bedroom'
p2617
aS'race start'
p2618
aS'pant'
p2619
aS'trains'
p2620
aS'car breaking'
p2621
aS'tokyo'
p2622
aS'broadcast'
p2623
aS'magnet'
p2624
aS'bird fly'
p2625
aS'iphone ringtone'
p2626
aS'car accelerate'
p2627
aS'gramophone'
p2628
aS'whoo'
p2629
aS'grumble'
p2630
aS'troll'
p2631
aS'harry potter'
p2632
aS'disc'
p2633
aS'a|b|c|d|e|f|g|h|i|j|k|l|m|n|o|p|q|r|s|t|u|v|w|x|y|z'
p2634
aS'concert crowd'
p2635
aS'mall'
p2636
aS'bushes'
p2637
aS'koto'
p2638
aS'game effect'
p2639
aS'sonar ping'
p2640
aS'wood '
p2641
aS'space explosion'
p2642
aS'cow bell'
p2643
aS'battle cry'
p2644
aS'sprinkler'
p2645
aS'plates'
p2646
aS'glass clink'
p2647
aS'natural'
p2648
aS'eraser'
p2649
aS'kids laugh'
p2650
aS'flick'
p2651
aS'truck engine'
p2652
aS'running steps'
p2653
aS'falling tree'
p2654
aS'track'
p2655
aS'pads'
p2656
aS'footstep wood'
p2657
aS'waterphone'
p2658
aS'curtains'
p2659
aS'hen'
p2660
aS'wait'
p2661
aS'chinese music'
p2662
aS'car drive by'
p2663
aS'blackbird'
p2664
aS'lego'
p2665
aS'bird chirping'
p2666
aS'medieval music'
p2667
aS'cook'
p2668
aS'escape'
p2669
aS'music game'
p2670
aS'rock fall'
p2671
aS'footstep grass'
p2672
aS'jump '
p2673
aS'wood floor'
p2674
aS'record stop'
p2675
aS'high hat'
p2676
aS'ohh'
p2677
aS'movie intro'
p2678
aS'fog'
p2679
aS'poem'
p2680
aS'drum solo'
p2681
aS'heavenly'
p2682
aS'car door close'
p2683
aS'heavy breath'
p2684
aS'braking'
p2685
aS'symphony'
p2686
aS'scream woman'
p2687
aS'nokia'
p2688
aS'animal sounds'
p2689
aS'old movie'
p2690
aS'garage door'
p2691
aS'died'
p2692
aS'heart beating'
p2693
aS'finger'
p2694
aS'valve'
p2695
aS'face slap'
p2696
aS'ding ding'
p2697
aS'scary laugh'
p2698
aS'ekg'
p2699
aS'agony'
p2700
aS'club music'
p2701
aS'dog howl'
p2702
aS'goodbye'
p2703
aS'analog'
p2704
aS'crab'
p2705
aS'fly by'
p2706
aS'basket'
p2707
aS'war drums'
p2708
aS'bitch'
p2709
aS'vampire'
p2710
aS'tired'
p2711
aS'umbrella'
p2712
aS'dog whine'
p2713
aS'hip hop beat'
p2714
aS'water splashing'
p2715
aS'metal falling'
p2716
aS'focus'
p2717
aS'ventilator'
p2718
aS'bell '
p2719
aS'woman moan'
p2720
aS'vortex'
p2721
aS'fnaf'
p2722
aS'nature '
p2723
aS'windows error'
p2724
aS'pneumatic'
p2725
aS'pack'
p2726
aS'bum'
p2727
aS'office sounds'
p2728
aS'bell ringing'
p2729
aS'pressure'
p2730
aS'what?'
p2731
aS'hose'
p2732
aS'on'
p2733
aS'windchime'
p2734
aS'female moans'
p2735
aS'piano intro'
p2736
aS'dial'
p2737
aS'party crowd'
p2738
aS'ballon'
p2739
aS'grinding'
p2740
aS'power on'
p2741
aS'bone crack'
p2742
aS'cymbal mallet'
p2743
aS'quiz'
p2744
aS'street sounds'
p2745
aS'coffe'
p2746
aS'tibet'
p2747
aS'dash'
p2748
aS'pages'
p2749
aS'heavy impact'
p2750
aS'chatting'
p2751
aS'car passing by'
p2752
aS'workshop'
p2753
aS'beach waves'
p2754
aS'magnetic'
p2755
aS'military radio'
p2756
aS'munch'
p2757
aS'ride cymbal'
p2758
aS'fast music'
p2759
aS'bomb drop'
p2760
aS'godzilla'
p2761
aS'viking'
p2762
aS'fork'
p2763
aS'door bang'
p2764
aS'alarm '
p2765
aS'class'
p2766
aS'oooh'
p2767
aS'man voice'
p2768
aS'vibraphone'
p2769
aS'woman singing'
p2770
aS'clicks'
p2771
aS'parade'
p2772
aS'clouds'
p2773
aS'cars passing'
p2774
aS'broke'
p2775
aS'woman breathing'
p2776
aS'synth loop'
p2777
aS'bus stop'
p2778
aS'wine glass'
p2779
aS'sexual intercourse'
p2780
aS'aplausos'
p2781
aS'trash can'
p2782
aS'glass bottle'
p2783
aS'weather'
p2784
aS'gospel'
p2785
aS'turkish'
p2786
aS'female gasp'
p2787
aS'shing'
p2788
aS'iphone message'
p2789
aS'forest ambient'
p2790
aS'egg crack'
p2791
aS'a'
aS'city ambient'
p2792
aS'pilot'
p2793
aS'dramatic '
p2794
aS'presentation'
p2795
aS'wand'
p2796
aS'pixel'
p2797
aS'big door'
p2798
aS'rush'
p2799
aS'church choir'
p2800
aS'metal fall'
p2801
aS'slam door'
p2802
aS'jingle bells'
p2803
aS'game button'
p2804
aS'megaphone'
p2805
aS'girls laughing'
p2806
aS'night city'
p2807
aS'gun load'
p2808
aS'kids cheering'
p2809
aS'bell ding'
p2810
aS'child cry'
p2811
aS'begin'
p2812
aS'cymbal swell'
p2813
aS'vent'
p2814
aS'ceramic'
p2815
aS'drugs'
p2816
aS'metal music'
p2817
aS'vroom'
p2818
aS'eerie music'
p2819
aS'mortar'
p2820
aS'walking grass'
p2821
aS'electric '
p2822
aS'pendulum'
p2823
aS'8mm projector'
p2824
aS'sunrise'
p2825
aS'slow footsteps'
p2826
aS'the end'
p2827
aS'tribe'
p2828
aS'suspense '
p2829
aS'level complete'
p2830
aS'140 bpm'
p2831
aS'ocean wave'
p2832
aS'ambient noise'
p2833
aS'radio interference'
p2834
aS'tubular bell'
p2835
aS'ship bell'
p2836
aS'papers'
p2837
aS'balls'
p2838
aS'parachute'
p2839
aS'men'
p2840
aS'pirates'
p2841
aS'monster '
p2842
aS'robot '
p2843
aS'video game music'
p2844
aS'silencer'
p2845
aS'frequency'
p2846
aS'demonstration'
p2847
aS'fans'
p2848
aS'.wav'
p2849
aS'lead'
p2850
aS'erotic'
p2851
aS'loose'
p2852
aS'teacher'
p2853
aS'inspiration'
p2854
aS'slide projector'
p2855
aS'load'
p2856
aS'wind sea'
p2857
aS'dark music'
p2858
aS'jelly'
p2859
aS'child scream'
p2860
aS'mix'
p2861
aS'happy loop'
p2862
aS'lab'
p2863
aS'rainstorm'
p2864
aS'shockwave'
p2865
aS'window open'
p2866
aS'quiet street'
p2867
aS'sheets'
p2868
aS'awesome'
p2869
aS'chipmunk'
p2870
aS'door ring'
p2871
aS'dog walking'
p2872
aS'clean'
p2873
aS'camera zoom'
p2874
aS'crocodile'
p2875
aS'oil'
p2876
aS'sniffing'
p2877
aS'drum beats'
p2878
aS'phone hang up'
p2879
aS'hmmm'
p2880
aS'horse running'
p2881
aS'forest wind'
p2882
aS'swishes'
p2883
aS'film music'
p2884
aS'woof'
p2885
aS'indoor'
p2886
aS'wrench'
p2887
aS'katana'
p2888
aS'water spray'
p2889
aS'short wind'
p2890
aS'birth'
p2891
aS'werewolf'
p2892
aS'eye'
p2893
aS'travel'
p2894
aS'gamelan'
p2895
aS'dropped'
p2896
aS'grasshopper'
p2897
aS'guitar music'
p2898
aS'sweeping'
p2899
aS'female grunt'
p2900
aS'start up'
p2901
aS'cinematic music'
p2902
aS'astronaut'
p2903
aS'snow storm'
p2904
aS'chopper'
p2905
aS'ball kick'
p2906
aS'ambiant'
p2907
aS'office ambient'
p2908
aS'gate open'
p2909
aS'space door'
p2910
aS'radio imaging'
p2911
aS'stampede'
p2912
aS'monks'
p2913
aS'wooden'
p2914
aS'man breathing'
p2915
aS'berlin'
p2916
aS'glock'
p2917
aS'new york city'
p2918
aS'guts'
p2919
aS'perc'
p2920
aS'trailer music'
p2921
aS'car radio'
p2922
aS'percussion loop'
p2923
aS'boat engine'
p2924
aS'opening music'
p2925
aS'lawnmower'
p2926
aS'stand up'
p2927
aS'mining'
p2928
aS'station'
p2929
aS'slow music'
p2930
aS'explosive'
p2931
aS'speed up'
p2932
aS'laser '
p2933
aS'whistling wind'
p2934
aS'outside ambience'
p2935
aS'woman breath'
p2936
aS'orchestra hit'
p2937
aS'wrestling'
p2938
aS'phaser'
p2939
aS'ww2'
p2940
aS'orgasm '
p2941
aS'wolf howling'
p2942
aS'office phone'
p2943
aS'eating '
p2944
aS'cartoon punch'
p2945
aS'buddhist'
p2946
aS'whistle '
p2947
aS'books'
p2948
aS'turning'
p2949
aS'belt'
p2950
aS'wind grass'
p2951
aS'crackling fire'
p2952
aS'loser'
p2953
aS'universe'
p2954
aS'cow moo'
p2955
aS'waking up'
p2956
aS'dentist'
p2957
aS'rain drops'
p2958
aS'crowd concert'
p2959
aS'plopp'
p2960
aS'documentary'
p2961
aS'instruments'
p2962
aS'arcade game'
p2963
aS'circus music'
p2964
aS'low bass'
p2965
aS'wild west'
p2966
aS'low rumble'
p2967
aS'fair'
p2968
aS'tamborine'
p2969
aS'techno '
p2970
aS'background '
p2971
aS'tape hiss'
p2972
aS'funny '
p2973
aS'rock '
p2974
aS'miss'
p2975
aS'chase music'
p2976
aS'nightingale'
p2977
aS'darth vader'
p2978
aS'vuvuzela'
p2979
aS'stone door'
p2980
aS'bassdrum'
p2981
aS'woman moaning'
p2982
aS'theme music'
p2983
aS'car speeding'
p2984
aS'neighborhood'
p2985
aS'film reel'
p2986
aS'popup'
p2987
aS'glass hit'
p2988
aS'push button'
p2989
aS'violin '
p2990
aS'munching'
p2991
aS'right answer'
p2992
aS'rowing'
p2993
aS'wind howl'
p2994
aS'night sounds'
p2995
aS'points'
p2996
aS'censored'
p2997
aS'radio station'
p2998
aS'end game'
p2999
aS'tape recorder'
p3000
aS'board'
p3001
aS'shuffling'
p3002
aS'shopping cart'
p3003
aS'wave crash'
p3004
aS'car door slam'
p3005
aS'fright'
p3006
aS'wheelchair'
p3007
aS'metal door open'
p3008
aS'twist'
p3009
aS'light buzz'
p3010
aS'tennis ball'
p3011
aS'blood splatter'
p3012
aS'cinematic impact'
p3013
aS'notify'
p3014
aS'crowd talking'
p3015
aS'sail'
p3016
aS'dialing'
p3017
aS'off'
p3018
aS'disappointed'
p3019
aS'piano keys'
p3020
aS'doppler'
p3021
aS'war drum'
p3022
aS'lightening'
p3023
aS'cinematic intro'
p3024
aS'italy'
p3025
aS'car acceleration'
p3026
aS'forest sounds'
p3027
aS'space ambient'
p3028
aS'shop bell'
p3029
aS'clockwork'
p3030
aS'hollow'
p3031
aS'voltage'
p3032
aS'city park'
p3033
aS'female '
p3034
aS'aha'
p3035
aS'cat hiss'
p3036
aS'leaves wind'
p3037
aS'mirror'
p3038
aS'metal click'
p3039
aS'japanese music'
p3040
aS'diner'
p3041
aS'wind sound'
p3042
aS'korea'
p3043
aS'enemy'
p3044
aS'woman laughing'
p3045
aS'intro sound'
p3046
aS'door locked'
p3047
aS'free'
p3048
aS'chillout'
p3049
aS'horror piano'
p3050
aS'ape'
p3051
aS'metal slide'
p3052
aS'thunder strike'
p3053
aS'satan'
p3054
aS'rocket launcher'
p3055
aS'motivational'
p3056
aS'reading'
p3057
aS'melodic'
p3058
aS'percussions'
p3059
aS'swinging'
p3060
aS'defeat'
p3061
aS'guitar string'
p3062
aS'telephone ringing'
p3063
aS'denied'
p3064
aS'sea wave'
p3065
aS'dolphins'
p3066
aS'vulture'
p3067
aS'damn'
p3068
aS'guitar chords'
p3069
aS'm16'
p3070
aS'doctor'
p3071
aS'halo'
p3072
aS'doing'
p3073
aS'car gravel'
p3074
aS'big drum'
p3075
aS'klick'
p3076
aS'bank'
p3077
aS'melancholy'
p3078
aS'brushing teeth'
p3079
aS'monster growl'
p3080
aS'death metal'
p3081
aS'woosh '
p3082
aS'dog cry'
p3083
aS'vibrator'
p3084
aS'fast wind'
p3085
aS'wind ambience'
p3086
aS'speach'
p3087
aS'suburb'
p3088
aS'sheet'
p3089
aS'drain'
p3090
aS'kazoo'
p3091
aS'win game'
p3092
aS'engine loop'
p3093
aS'island'
p3094
aS'hallway'
p3095
aS'harley davidson'
p3096
aS'head'
p3097
aS'relaxing music'
p3098
aS'crossbow'
p3099
aS'galaxy'
p3100
aS'people '
p3101
aS'disappointment'
p3102
aS'heroic'
p3103
aS'pray'
p3104
aS'door opens'
p3105
aS'squeal'
p3106
aS'electric spark'
p3107
aS'bass loop'
p3108
aS'america'
p3109
aS'cartoon bounce'
p3110
aS'cafeteria'
p3111
aS'handgun'
p3112
aS'man crying'
p3113
aS'wizard'
p3114
aS'stove'
p3115
aS'yoga'
p3116
aS'tic'
p3117
aS'freezing'
p3118
aS'beep beep'
p3119
aS'starwars'
p3120
aS'group laugh'
p3121
aS'blub'
p3122
aS'musicbox'
p3123
aS'body drop'
p3124
aS'movie music'
p3125
aS'bird sounds'
p3126
aS'owls'
p3127
aS'crash '
p3128
aS'people talk'
p3129
aS'chips'
p3130
aS'chants'
p3131
aS'female moaning'
p3132
aS'bird call'
p3133
aS'dock'
p3134
aS'cleaning'
p3135
aS'grunting'
p3136
aS'911'
p3137
aS'stopwatch'
p3138
aS'nope'
p3139
aS'sofa'
p3140
aS'inspiring'
p3141
aS'memory'
p3142
aS'knocking door'
p3143
aS'mom'
p3144
aS'superman'
p3145
aS'metalic'
p3146
aS'credits'
p3147
aS'object'
p3148
aS'bagpipes'
p3149
aS'vacuum stairs'
p3150
aS'bullets'
p3151
aS'tree fall'
p3152
aS'business'
p3153
aS'wistle'
p3154
aS'cartoon scream'
p3155
aS'shove'
p3156
aS'dub step'
p3157
aS'metal thud'
p3158
aS'tape noise'
p3159
aS'poing'
p3160
aS'horse walking'
p3161
aS'one'
p3162
aS'sexy voice'
p3163
aS'cartoon hit'
p3164
aS'rythm'
p3165
aS'biting'
p3166
aS'old film'
p3167
aS'birds forest'
p3168
aS'boot'
p3169
aS'floor tom'
p3170
aS'space sound'
p3171
aS'button '
p3172
aS'thanks'
p3173
aS'drinking water'
p3174
aS'male laugh'
p3175
aS'electric car'
p3176
aS'kitchen ambience'
p3177
aS'men talking'
p3178
aS'cat scream'
p3179
aS'night '
p3180
aS'crazy laugh'
p3181
aS'ethereal'
p3182
aS'vocal '
p3183
aS'clock bell'
p3184
aS'street '
p3185
aS'choral'
p3186
aS'african drums'
p3187
aS'dubstep kick'
p3188
aS'8bit music'
p3189
aS'crowd laughter'
p3190
aS'breakfast'
p3191
aS'tumble'
p3192
aS'discussion'
p3193
aS'man shouting'
p3194
aS' wind'
p3195
aS'irish'
p3196
aS'voice over'
p3197
aS'minions'
p3198
aS'party ambience'
p3199
aS'native'
p3200
aS'reel'
p3201
aS'intercourse'
p3202
aS'raindrops'
p3203
aS'car window'
p3204
aS'elevator '
p3205
aS'rain window'
p3206
aS'high frequency'
p3207
aS'panda'
p3208
aS'hiccup'
p3209
aS'running forest'
p3210
aS'flash camera'
p3211
aS'spiritual'
p3212
aS'terminator'
p3213
aS'sick'
p3214
aS'silencer gun'
p3215
aS'snake hiss'
p3216
aS'morse'
p3217
aS'closing'
p3218
aS'scream man'
p3219
aS'action '
p3220
aS'small bell'
p3221
aS'samurai'
p3222
aS'wah wah'
p3223
aS'robot walk'
p3224
aS'water tap'
p3225
aS'dog walk'
p3226
aS'ghosts'
p3227
aS'wagon'
p3228
aS'door creek'
p3229
aS'missle'
p3230
aS'body thud'
p3231
aS'leafs'
p3232
aS'car racing'
p3233
aS'water fountain'
p3234
aS'excitement'
p3235
aS'yo'
p3236
aS'alarm bell'
p3237
aS'square'
p3238
aS'sword slice'
p3239
aS'fashion'
p3240
aS'squeaky wheel'
p3241
aS'airplane landing'
p3242
aS'machinegun'
p3243
aS'male pain'
p3244
aS'soup'
p3245
aS'fall '
p3246
aS'mistake'
p3247
aS'rim'
p3248
aS'hail'
p3249
aS'oh shit'
p3250
aS'event'
p3251
aS'connect'
p3252
aS'cavern'
p3253
aS'duck quack'
p3254
aS'banana'
p3255
aS'claw'
p3256
aS'beating'
p3257
aS'oh oh'
p3258
aS'sunny day'
p3259
aS'black hole'
p3260
aS'police scanner'
p3261
aS'scuffle'
p3262
aS'bulldozer'
p3263
aS'quake'
p3264
aS'water hose'
p3265
aS'ocean sounds'
p3266
aS'water bubble'
p3267
aS'teleportation'
p3268
aS'clip'
p3269
aS'spray can'
p3270
aS'crowd clapping'
p3271
aS'thunderclap'
p3272
aS'car driving by'
p3273
aS'ghost '
p3274
aS'bop'
p3275
aS'grabbing'
p3276
aS'gun click'
p3277
aS'gui'
p3278
aS'football '
p3279
aS'heart '
p3280
aS'fire engine'
p3281
aS'women talking'
p3282
aS'hit wall'
p3283
aS'trippy'
p3284
aS'house ambience'
p3285
aS'chirping'
p3286
aS'cartoon boing'
p3287
aS'spongebob'
p3288
aS'applaud'
p3289
aS'seatbelt'
p3290
aS'burnout'
p3291
aS'jeep'
p3292
aS'man yelling'
p3293
aS'man laughing'
p3294
aS'environment'
p3295
aS'mad'
p3296
aS'girl talking'
p3297
aS'band'
p3298
aS'moped'
p3299
aS'buble'
p3300
aS'knife cut'
p3301
aS'beep '
p3302
aS'sticks'
p3303
aS'calling'
p3304
aS'hitting metal'
p3305
aS'effort'
p3306
aS'anxiety'
p3307
aS'computer game'
p3308
aS'bottle open'
p3309
aS'love song'
p3310
aS'british'
p3311
aS'sand '
p3312
aS'bolt'
p3313
aS'pocket'
p3314
aS'space ambience'
p3315
aS'french horn'
p3316
aS'potion'
p3317
aS'spank'
p3318
aS'flop'
p3319
aS'phone message'
p3320
aS'smell'
p3321
aS'hit sound'
p3322
aS'theme song'
p3323
aS'bravo'
p3324
aS'passing'
p3325
aS'amazing'
p3326
aS'pig squeal'
p3327
aS'mustang'
p3328
aS'cellphone ring'
p3329
aS'wood fall'
p3330
aS'dun dun'
p3331
aS'wind loop'
p3332
aS'computer sound'
p3333
aS'hair dryer'
p3334
aS'bom'
p3335
aS'steps grass'
p3336
aS'healing'
p3337
aS'bingo'
p3338
aS'forklift'
p3339
aS'moon'
p3340
aS'120bpm'
p3341
aS'motivation'
p3342
aS'rain drop'
p3343
aS'jump sound'
p3344
aS'owl hoot'
p3345
aS'latch'
p3346
aS'pipes'
p3347
aS'crunching'
p3348
aS'spacecraft'
p3349
aS'scary piano'
p3350
aS'clear'
p3351
aS'open bottle'
p3352
aS'camera sound'
p3353
aS'person falling'
p3354
aS'b_lamerichs'
p3355
aS'angry boat'
p3356
aS'sparrow'
p3357
aS'party '
p3358
aS'lasers'
p3359
aS'watermelon'
p3360
aS'poetry'
p3361
aS'walking wood'
p3362
aS'poo'
p3363
aS'drum and bass'
p3364
aS'rev'
p3365
aS'ancient'
p3366
aS'piano c'
p3367
aS'fight '
p3368
aS'planet'
p3369
aS'needle scratch'
p3370
aS'australia'
p3371
aS'spinning wheel'
p3372
aS'apocalypse'
p3373
aS'truck driving'
p3374
aS'court'
p3375
aS'trip'
p3376
aS'dog growling'
p3377
aS'wind forest'
p3378
aS'dog whining'
p3379
aS'trump'
p3380
aS'drum kick'
p3381
aS'drum n bass'
p3382
aS'shocking'
p3383
aS'window breaking'
p3384
aS'france'
p3385
aS'random'
p3386
aS' whistle'
p3387
aS'female sigh'
p3388
aS'runing'
p3389
aS'hit hat'
p3390
aS'racecar'
p3391
aS'car running'
p3392
aS'8 bit '
p3393
aS'argue'
p3394
aS'frustration'
p3395
aS'weed'
p3396
aS'car pulling up'
p3397
aS'horse walk'
p3398
aS'vinyl needle'
p3399
aS'pleasure'
p3400
aS'jazz guitar'
p3401
aS'radio voice'
p3402
aS'medieval battle'
p3403
aS'one shot'
p3404
aS'phone rings'
p3405
aS'pickaxe'
p3406
aS'groaning'
p3407
aS'pen writing'
p3408
aS'haunted house'
p3409
aS'cathedral'
p3410
aS'motion graphic'
p3411
aS'experimental'
p3412
aS'switch off'
p3413
aS' laugh'
p3414
aS'final'
p3415
aS'silent'
p3416
aS'footsteps metal'
p3417
aS'sewing'
p3418
aS'creepy '
p3419
aS'crime'
p3420
aS'death scream'
p3421
aS'light music'
p3422
aS'pc'
p3423
aS'croud'
p3424
aS'japanese girl'
p3425
aS'public'
p3426
aS'corridor'
p3427
aS'high school'
p3428
aS'entrance'
p3429
aS'girl cry'
p3430
aS'fade in'
p3431
aS'target'
p3432
aS'football stadium'
p3433
aS'electric hum'
p3434
aS'jazz '
p3435
aS'beat drop'
p3436
aS'locked'
p3437
aS'boil'
p3438
aS'punch sound'
p3439
aS'battle horn'
p3440
aS'ocean '
p3441
aS'walk '
p3442
aS'radio tune'
p3443
aS'tribal drum'
p3444
aS'running away'
p3445
aS'water running'
p3446
aS'open box'
p3447
aS'zombie '
p3448
aS'phone tone'
p3449
aS'domino'
p3450
aS'skeleton'
p3451
aS'sci fi '
p3452
aS'cool music'
p3453
aS'horror violin'
p3454
aS'bycicle'
p3455
aS'ambient wind'
p3456
aS'car ignition'
p3457
aS'yahoo'
p3458
aS'pencil writing'
p3459
aS'answer'
p3460
aS'skating'
p3461
aS'footsteps sand'
p3462
aS'street sound'
p3463
aS'hop'
p3464
aS'techno kick'
p3465
aS'loon'
p3466
aS'dinosaur roar'
p3467
aS'laptop'
p3468
aS'drive'
p3469
aS'knock '
p3470
aS'drum bass'
p3471
aS'night crickets'
p3472
aS'register'
p3473
aS'activate'
p3474
aS'tornado siren'
p3475
aS'run '
p3476
aS'waltz'
p3477
aS'radiator'
p3478
aS'wooden floor'
p3479
aS'shore'
p3480
aS'hitler'
p3481
aS'soccer ball'
p3482
aS'happy melody'
p3483
aS'footstep concrete'
p3484
aS'hoover'
p3485
aS'creepy piano'
p3486
aS'football whistle'
p3487
aS'cuckoo clock'
p3488
aS'fast footsteps'
p3489
aS'chick'
p3490
aS'particles'
p3491
aS'sex moaning'
p3492
aS'congas'
p3493
aS'outer space'
p3494
aS'screen'
p3495
aS'rattlesnake'
p3496
aS'small dog'
p3497
aS'sauna'
p3498
aS'whoa'
p3499
aS'anime girl'
p3500
aS'whirl'
p3501
aS'back'
p3502
aS'war music'
p3503
aS'come on'
p3504
aS'female sex'
p3505
aS'water pouring'
p3506
aS'enter'
p3507
aS'horror laugh'
p3508
aS'zippo'
p3509
aS'musket'
p3510
aS'robot sounds'
p3511
aS'tap water'
p3512
aS'alien sound'
p3513
aS'soccer crowd'
p3514
aS'cable'
p3515
aS'fanfar'
p3516
aS'soothing'
p3517
aS'breathing '
p3518
aS'guiro'
p3519
aS'sound fx'
p3520
aS'c'
aS'clocks'
p3521
aS'arrows'
p3522
aS'cyber'
p3523
aS'samples'
p3524
aS'wish'
p3525
aS'old computer'
p3526
aS'inflate'
p3527
aS'man shout'
p3528
aS'instrumental music'
p3529
aS'jungle '
p3530
aS'alien voice'
p3531
aS'stone fall'
p3532
aS'mouse squeak'
p3533
aS'air swoosh'
p3534
aS'start engine'
p3535
aS'ice cracking'
p3536
aS'surgery'
p3537
aS'why'
p3538
aS'bird flapping'
p3539
aS'tv turn off'
p3540
aS'bridge'
p3541
aS'crowd gasp'
p3542
aS'cartoon run'
p3543
aS'dial up'
p3544
aS'bathtub'
p3545
aS'ripping'
p3546
aS'footsteps snow'
p3547
aS'can open'
p3548
aS'picking up'
p3549
aS'fire explosion'
p3550
aS'arpeggio'
p3551
aS'meme'
p3552
aS'uh oh'
p3553
aS'mic feedback'
p3554
aS'wolf whistle'
p3555
aS'korg'
p3556
aS'voice '
p3557
aS'snare '
p3558
aS'wah'
p3559
aS'swap'
p3560
aS'toad'
p3561
aS'si'
p3562
aS'high'
p3563
aS'spirit'
p3564
aS'hissing'
p3565
aS'tink'
p3566
aS'cell phone ringing'
p3567
aS'you lose'
p3568
aS'shopping'
p3569
aS'pots'
p3570
aS'wind desert'
p3571
aS'single note'
p3572
aS'restaurant kitchen'
p3573
aS'man falling'
p3574
aS'nyc'
p3575
aS'incoming'
p3576
aS'bass drone'
p3577
aS'ignite'
p3578
aS'horn car'
p3579
aS'weapons'
p3580
aS'mariachi'
p3581
aS'cogs'
p3582
aS'wire'
p3583
aS'knife '
p3584
aS'ding ding ding'
p3585
aS'zoom in'
p3586
aS'menu music'
p3587
aS'pound'
p3588
aS'mortal kombat'
p3589
aS'quick'
p3590
aS'action movie'
p3591
aS'prison door'
p3592
aS'takeoff'
p3593
aS'phone click'
p3594
aS'silverware'
p3595
aS'sewer'
p3596
aS'annoyed'
p3597
aS'emergency alarm'
p3598
aS'sea storm'
p3599
aS'water stream'
p3600
aS'lounge music'
p3601
aS'towel'
p3602
aS'killer'
p3603
aS'woah'
p3604
aS'iphone camera'
p3605
aS'trip hop'
p3606
aS'mario coin'
p3607
aS'calm sea'
p3608
aS'pizzicato'
p3609
aS'goo'
p3610
aS'ogg'
p3611
aS'city ambiance'
p3612
aS'disgust'
p3613
aS'game hit'
p3614
aS'reward'
p3615
aS'whiz'
p3616
aS'heavy wind'
p3617
aS'rain loop'
p3618
aS'jump water'
p3619
aS'paper flip'
p3620
aS'night time'
p3621
aS'swoosh '
p3622
aS'mobile phone ring'
p3623
aS'screaming crowd'
p3624
aS'football match'
p3625
aS'comedy music'
p3626
aS'slicing'
p3627
aS'tuning'
p3628
aS'donald trump'
p3629
aS'sea gull'
p3630
aS'commercial music'
p3631
aS'shell'
p3632
aS'plane '
p3633
aS'ambience music'
p3634
aS'recorder'
p3635
aS'abandoned'
p3636
aS'notice'
p3637
aS'beat box'
p3638
aS'ringtones'
p3639
aS'bird sound'
p3640
aS'plastic bottle'
p3641
aS'cat fight'
p3642
aS'rain storm'
p3643
aS'locker'
p3644
aS'toys'
p3645
aS'phone conversation'
p3646
aS'kids music'
p3647
aS'vending machine'
p3648
aS'number'
p3649
aS'gentle wind'
p3650
aS'toy car'
p3651
aS'grinder'
p3652
aS'vomiting'
p3653
aS'haunting'
p3654
aS'waiting room'
p3655
aS'falling rocks'
p3656
aS'traffic light'
p3657
aS'alphabet'
p3658
aS'tubular bells'
p3659
aS'eh'
p3660
aS'sex noises'
p3661
aS'tesla'
p3662
aS'shhh'
p3663
aS'award'
p3664
aS'pulley'
p3665
aS'sports car'
p3666
aS'jetpack'
p3667
aS'room ambient'
p3668
aS'mandolin'
p3669
aS'fast heartbeat'
p3670
aS'metal sound'
p3671
aS'gag'
p3672
aS'iron door'
p3673
aS'girl moaning'
p3674
aS'floating'
p3675
aS'secret'
p3676
aS'line'
p3677
aS'click sound'
p3678
aS'catapult'
p3679
aS'long beep'
p3680
aS'computer keyboard'
p3681
aS'arp'
p3682
aS'melancholic'
p3683
aS'electric door'
p3684
aS'mozart'
p3685
aS'chess'
p3686
aS'picture'
p3687
aS'transmission'
p3688
aS'water jump'
p3689
aS'wolf '
p3690
aS'bugle'
p3691
aS'woman cry'
p3692
aS'beethoven'
p3693
aS'wood smash'
p3694
aS'falling object'
p3695
aS'pills'
p3696
aS'squishy'
p3697
aS'goblin'
p3698
aS'pushing'
p3699
aS'granular'
p3700
aS'distant explosion'
p3701
aS'guitar acoustic'
p3702
aS'footstep '
p3703
aS'wee'
p3704
aS'creepy voice'
p3705
aS'slide guitar'
p3706
aS'eletronic'
p3707
aS'slosh'
p3708
aS'salt'
p3709
aS'scratch '
p3710
aS'rain thunder'
p3711
aS'120'
p3712
aS'rock hit'
p3713
aS'ambient forest'
p3714
aS'rain stick'
p3715
aS'forest sound'
p3716
aS'vinyl stop'
p3717
aS'rewind tape'
p3718
aS'sitcom'
p3719
aS'jazz drums'
p3720
aS'shouts'
p3721
aS'coin collect'
p3722
aS'shotgun shot'
p3723
aS'dubstep bass'
p3724
aS'scrub'
p3725
aS'void'
p3726
aS'gol'
p3727
aS'car stops'
p3728
aS'walk grass'
p3729
aS'helicopter '
p3730
aS'bear roar'
p3731
aS'middle east'
p3732
aS'argh'
p3733
aS'poker'
p3734
aS'scary violin'
p3735
aS'orc'
p3736
aS'packs'
p3737
aS'percusion'
p3738
aS'whine'
p3739
aS'pounding'
p3740
aS'autumn'
p3741
aS'creepy ambience'
p3742
aS'stupid'
p3743
aS'beach '
p3744
aS'distant thunder'
p3745
aS'scream male'
p3746
aS'can opening'
p3747
aS'completed'
p3748
aS'loud bang'
p3749
aS'accelerate'
p3750
aS'kids '
p3751
aS'jacket'
p3752
aS'klankbeeld'
p3753
aS'mob'
p3754
aS'news report'
p3755
aS'warm'
p3756
aS'sponge'
p3757
aS'mother'
p3758
aS'winds'
p3759
aS'sharp'
p3760
aS'impulse'
p3761
aS'tool'
p3762
aS'slow steps'
p3763
aS'piston'
p3764
aS'walkie'
p3765
aS'snow wind'
p3766
aS'radio intro'
p3767
aS'avion'
p3768
aS'restaurant ambience'
p3769
aS'babble'
p3770
aS' fight'
p3771
aS'background loop'
p3772
aS'car speed'
p3773
aS'big bang'
p3774
aS'squeaky door'
p3775
aS'8 bit game'
p3776
aS'kick ball'
p3777
aS'studio'
p3778
aS'airlock'
p3779
aS'pin'
p3780
aS'ambience '
p3781
aS'polaroid'
p3782
aS'muscle car'
p3783
aS'heavy drop'
p3784
aS'pussy'
p3785
aS'kid crying'
p3786
aS'ball roll'
p3787
aS'maraca'
p3788
aS'sign'
p3789
aS'circle'
p3790
aS'snares'
p3791
aS'demonic'
p3792
aS'dtmf'
p3793
aS'electric piano'
p3794
aS'football kick'
p3795
aS'royal'
p3796
aS'tense music'
p3797
aS'evil laughter'
p3798
aS'scanning'
p3799
aS"let's go"
p3800
aS'bar sounds'
p3801
aS'lonely'
p3802
aS'arena'
p3803
aS'matches'
p3804
aS'upgrade'
p3805
aS'mill'
p3806
aS'whirring'
p3807
aS'islam'
p3808
aS'undertale'
p3809
aS'low hum'
p3810
aS'wood steps'
p3811
aS'jail door'
p3812
aS'twitter'
p3813
aS'golf ball'
p3814
aS'thx'
p3815
aS'helmet'
p3816
aS'tie'
p3817
aS'glass door'
p3818
aS'cabinet'
p3819
aS'ovation'
p3820
aS'sawing'
p3821
aS'rainstick'
p3822
aS'robot move'
p3823
aS'robot movement'
p3824
aS'soft piano'
p3825
aS'robots'
p3826
aS'stumble'
p3827
aS'assault rifle'
p3828
aS'magpie'
p3829
aS'slide door'
p3830
aS'bar '
p3831
aS'judge'
p3832
aS'selection'
p3833
aS'frying pan'
p3834
aS'chaching'
p3835
aS'hentai'
p3836
aS'girl voice'
p3837
aS'bbq'
p3838
aS'ice '
p3839
aS'countdown '
p3840
aS'particle'
p3841
aS'ice break'
p3842
aS'record needle'
p3843
aS'flute '
p3844
aS'okay'
p3845
aS'guitar strum'
p3846
aS'scratch vinyl'
p3847
aS'horse galloping'
p3848
aS'slapping'
p3849
aS'loop game'
p3850
aS'wrong buzzer'
p3851
aS'news music'
p3852
aS'western music'
p3853
aS'bash'
p3854
aS'conference'
p3855
aS'wind storm'
p3856
aS'big bell'
p3857
aS'90 bpm'
p3858
aS'cajon'
p3859
aS'sea birds'
p3860
aS'hurray'
p3861
aS'footsteps stone'
p3862
aS'window smash'
p3863
aS'gregorian'
p3864
aS'tropical birds'
p3865
aS'gross'
p3866
aS'tom tom'
p3867
aS'jazzy'
p3868
aS'fall ground'
p3869
aS'tetris'
p3870
aS'neigh'
p3871
aS'ew'
p3872
aS'delicious'
p3873
aS'castanets'
p3874
aS'dj '
p3875
aS'cartoon falling'
p3876
aS'chalkboard'
p3877
aS'brushing'
p3878
aS'computer typing'
p3879
aS'railway'
p3880
aS'ambient nature'
p3881
aS'percussive'
p3882
aS'next'
p3883
aS'vinyl record'
p3884
aS'pizza'
p3885
aS'minigun'
p3886
aS'twirl'
p3887
aS'ring phone'
p3888
aS'story'
p3889
aS'crowd clap'
p3890
aS'street night'
p3891
aS'gangster'
p3892
aS'steam locomotive'
p3893
aS'footsteps dirt'
p3894
aS'blind'
p3895
aS'hooves'
p3896
aS'bunny'
p3897
aS'garbage'
p3898
aS'bus horn'
p3899
aS'gun sounds'
p3900
aS'cancel'
p3901
aS'fight sounds'
p3902
aS'relax music'
p3903
aS'amsterdam'
p3904
aS'high heel'
p3905
aS'relaxation'
p3906
aS'istanbul'
p3907
aS'fairytale'
p3908
aS'mmmm'
p3909
aS' explosion'
p3910
aS'mountain wind'
p3911
aS'soft rain'
p3912
aS'detective'
p3913
aS'soil'
p3914
aS'door chime'
p3915
aS'swearing'
p3916
aS'click button'
p3917
aS'shift'
p3918
aS'dingdong'
p3919
aS'piano sad'
p3920
aS'basketball '
p3921
aS'computer '
p3922
aS"80's"
p3923
aS'aquarium'
p3924
aS'computer beeps'
p3925
aS'wood falling'
p3926
aS'fire extinguisher'
p3927
aS'train tracks'
p3928
aS'ambient room'
p3929
aS'sunset'
p3930
aS'revolver shot'
p3931
aS'tape stop'
p3932
aS'rock falling'
p3933
aS'shoe'
p3934
aS'epic '
p3935
aS'los angeles'
p3936
aS'disturbing'
p3937
aS'bird singing'
p3938
aS'bossa nova'
p3939
aS'brasil'
p3940
aS'agua'
p3941
aS'audience laughing'
p3942
aS'gameshow'
p3943
aS'creep'
p3944
aS'cd'
p3945
aS'greeting'
p3946
aS'desert '
p3947
aS'car tires'
p3948
aS'hush'
p3949
aS'circular saw'
p3950
aS'car lock'
p3951
aS'gulls'
p3952
aS'confusion'
p3953
aS'warrior'
p3954
aS'love music'
p3955
aS'woman orgasm'
p3956
aS'jaguar'
p3957
aS'wonder'
p3958
aS'insane'
p3959
aS'woodblock'
p3960
aS'passing car'
p3961
aS'vibraslap'
p3962
aS'phone button'
p3963
aS'slap face'
p3964
aS'stir'
p3965
aS'sinking'
p3966
aS'good job'
p3967
aS'tango'
p3968
aS'good morning'
p3969
aS'super 8'
p3970
aS'headshot'
p3971
aS'leaves rustle'
p3972
aS'round'
p3973
aS'fire ball'
p3974
aS'monitor'
p3975
aS'radio news'
p3976
aS'man yell'
p3977
aS'jar'
p3978
aS'frozen'
p3979
aS'illuminati'
p3980
aS'flowers'
p3981
aS'night street'
p3982
aS'gun cocking'
p3983
aS'office chair'
p3984
aS'serious'
p3985
aS'horror hit'
p3986
aS'safe'
p3987
aS'spanking'
p3988
aS'raindrop'
p3989
aS'techno loop'
p3990
aS'crate'
p3991
aS'stone hit'
p3992
aS'beer bottle opening'
p3993
aS'bruh'
p3994
aS'female sing'
p3995
aS' cartoon'
p3996
aS'head hit'
p3997
aS'bomb falling'
p3998
aS'heart beat '
p3999
aS'taser'
p4000
aS'music background'
p4001
aS'horor'
p4002
aS'sugar'
p4003
aS' japan fight'
p4004
aS'forest fire'
p4005
aS'8 bits'
p4006
aS'darkness'
p4007
aS'truck '
p4008
aS'confirmation'
p4009
aS'wind up'
p4010
aS'congratulation'
p4011
aS'plane engine'
p4012
aS'scary voice'
p4013
aS'photo flash'
p4014
aS'cc0'
p4015
aS'pink floyd'
p4016
aS'brook'
p4017
aS'orchestral '
p4018
aS'camping'
p4019
aS'jaw harp'
p4020
aS'click '
p4021
aS'setuniman'
p4022
aS'cream'
p4023
aS'vanish'
p4024
aS'deep kick'
p4025
aS'workout'
p4026
aS'hit body'
p4027
aS'wind whistle'
p4028
aS'hydraulics'
p4029
aS'ultrasound'
p4030
aS'fizzle'
p4031
aS'footsteps floor'
p4032
aS'jesus'
p4033
aS'game intro'
p4034
aS'kid laughing'
p4035
aS'falling over'
p4036
aS'indian music'
p4037
aS'hit floor'
p4038
aS'motorboat'
p4039
aS'foliage'
p4040
aS'woman '
p4041
aS'scissor'
p4042
aS'handcuffs'
p4043
aS'tv news'
p4044
aS'preacher'
p4045
aS'back in black'
p4046
aS'diarrhea'
p4047
aS'cartoon whistle'
p4048
aS'drown'
p4049
aS'arabian'
p4050
aS'emotion'
p4051
aS'switch on'
p4052
aS'choir '
p4053
aS'silent movie'
p4054
aS'thruster'
p4055
aS'male grunt'
p4056
aS'thunder rain'
p4057
aS'metal break'
p4058
aS'test'
p4059
aS'joyful'
p4060
aS'crashing waves'
p4061
aS'what the fuck'
p4062
aS'fry'
p4063
aS'dramatic sound'
p4064
aS'wood drop'
p4065
aS'flow'
p4066
aS'cuica'
p4067
aS'woodland'
p4068
aS'force field'
p4069
aS'coin pickup'
p4070
aS'toy piano'
p4071
aS'cereal'
p4072
aS'breaks'
p4073
aS'door knob'
p4074
aS'break wood'
p4075
aS'piss'
p4076
aS'bird scream'
p4077
aS'playful'
p4078
aS'ohm'
p4079
aS'puzzle'
p4080
aS'phone pick up'
p4081
aS'old woman'
p4082
aS'gritos'
p4083
aS'plane take off'
p4084
aS'big explosion'
p4085
aS'sound design'
p4086
aS'menu click'
p4087
aS'crowd boo'
p4088
aS'milk'
p4089
aS'crumbling'
p4090
aS'water bottle'
p4091
aS'crushing'
p4092
aS'whir'
p4093
aS'dj drops'
p4094
aS'wiggle'
p4095
aS'door kick'
p4096
aS'dramatic hit'
p4097
aS'falcon'
p4098
aS'audience clapping'
p4099
aS'crowd cheers'
p4100
aS'funny laugh'
p4101
aS'basket ball'
p4102
aS'drop '
p4103
aS'glacier'
p4104
aS'boring'
p4105
aS'elevator bell'
p4106
aS'goats'
p4107
aS'reverse snare'
p4108
aS'fart '
p4109
aS'paddle'
p4110
aS'shop door'
p4111
aS'ak'
p4112
aS'sipping'
p4113
aS'ambiental'
p4114
aS'speaker'
p4115
aS'130 bpm'
p4116
aS'well done'
p4117
aS'creepy sound'
p4118
aS'big hit'
p4119
aS'whipping'
p4120
aS'cristal'
p4121
aS'boat motor'
p4122
aS'women scream'
p4123
aS'deep sea'
p4124
aS'poke'
p4125
aS'messenger'
p4126
aS'rainbow'
p4127
aS'movies'
p4128
aS'roller'
p4129
aS'game menu'
p4130
aS'hook'
p4131
aS'excavator'
p4132
aS'foot stomp'
p4133
aS'over'
p4134
aS'funny scream'
p4135
aS'nuclear alarm'
p4136
aS'hearth'
p4137
aS'piano happy'
p4138
aS'spear'
p4139
aS'birds tweeting'
p4140
aS'school bus'
p4141
aS'splash cymbal'
p4142
aS'buy'
p4143
aS'909'
p4144
aS'sunshine'
p4145
aS'light '
p4146
aS'shush'
p4147
aS'lights on'
p4148
aS'struggling'
p4149
aS'machine start'
p4150
aS'shooting star'
p4151
aS'king'
p4152
aS'water flow'
p4153
aS'modern'
p4154
aS'water glass'
p4155
aS'monsters'
p4156
aS'dog whimper'
p4157
aS'computer error'
p4158
aS'bowling ball'
p4159
aS'music happy'
p4160
aS'geiger'
p4161
aS'boxes'
p4162
aS'natur'
p4163
aS'gum'
p4164
aS'people scream'
p4165
aS'nom'
p4166
aS'ice skating'
p4167
aS'iphone text'
p4168
aS'flood'
p4169
aS'synths'
p4170
aS'talking people'
p4171
aS'sexual'
p4172
aS'rail'
p4173
aS'sex moans'
p4174
aS'kick door'
p4175
aS'hi-hat'
p4176
aS'stirring'
p4177
aS'hug'
p4178
aS'tibetan bell'
p4179
aS'ferry'
p4180
aS'100 bpm'
p4181
aS'girl singing'
p4182
aS'wisper'
p4183
aS'happy sounds'
p4184
aS'hardcore kick'
p4185
aS'foot steps '
p4186
aS'pitch'
p4187
aS'hurry'
p4188
aS'oud'
p4189
aS'jeopardy'
p4190
aS'wash'
p4191
aS'big thunder'
p4192
aS'knock on door'
p4193
aS'treadmill'
p4194
aS'building collapse'
p4195
aS'mech'
p4196
aS'trailer hit'
p4197
aS'japanese '
p4198
aS'ding '
p4199
aS'night sound'
p4200
aS'symbol'
p4201
aS'system'
p4202
aS'static noise'
p4203
aS'atomic bomb'
p4204
aS'swash'
p4205
aS'busy city'
p4206
aS'singer'
p4207
aS'arcade music'
p4208
aS'tekno'
p4209
aS'float'
p4210
aS'loss'
p4211
aS'footsteps inside'
p4212
aS'male orgasm'
p4213
aS'horse whinny'
p4214
aS'menu select'
p4215
aS'droplet'
p4216
aS'imaging'
p4217
aS'electric noise'
p4218
aS'motor bike'
p4219
aS'water sound'
p4220
aS'jungle sounds'
p4221
aS'trampoline'
p4222
aS'nature sound'
p4223
aS'vcr'
p4224
aS'nooo'
p4225
aS'trap '
p4226
aS'mic drop'
p4227
aS'videogames'
p4228
aS'new message'
p4229
aS'win sound'
p4230
aS'searching'
p4231
aS'backwards'
p4232
aS'turtle'
p4233
aS'space sounds'
p4234
aS'barcelona'
p4235
aS'plane taking off'
p4236
aS'swallowing'
p4237
aS'cardboard box'
p4238
aS'running concrete'
p4239
aS'slide '
p4240
aS'saber'
p4241
aS'seat belt'
p4242
aS'scary ambience'
p4243
aS'super'
p4244
aS'old camera'
p4245
aS'throat singing'
p4246
aS'old phone ring'
p4247
aS'coin game'
p4248
aS'room tone '
p4249
aS'coins falling'
p4250
aS'rusty'
p4251
aS'collide'
p4252
aS'air whoosh'
p4253
aS'drive by'
p4254
aS'graveyard'
p4255
aS'falling body'
p4256
aS'horn '
p4257
aS'atari'
p4258
aS'hit head'
p4259
aS'cake'
p4260
aS'fly buzzing'
p4261
aS'login'
p4262
aS'daddy'
p4263
aS'woman sex'
p4264
aS'dart'
p4265
aS'walking on grass'
p4266
aS'electronic loop'
p4267
aS'tac'
p4268
aS'chill music'
p4269
aS'slots'
p4270
aS'chill out'
p4271
aS'thailand'
p4272
aS'china cymbal'
p4273
aS'reloading'
p4274
aS'room sound'
p4275
aS'camera shot'
p4276
aS'sad sound'
p4277
aS'creative commons'
p4278
aS'wush'
p4279
aS'paint brush'
p4280
aS'desk'
p4281
aS'transition '
p4282
aS'photo click'
p4283
aS'hahaha'
p4284
aS'wiping'
p4285
aS'piep'
p4286
aS'fingers'
p4287
aS'skateboarding'
p4288
aS'hit table'
p4289
aS'tech house'
p4290
aS'false'
p4291
aS'spooky music'
p4292
aS'ambulance '
p4293
aS'slow piano'
p4294
aS'air '
p4295
aS'time warp'
p4296
aS'true'
p4297
aS'barking dog'
p4298
aS'sprinkle'
p4299
aS'trunk'
p4300
aS'button beep'
p4301
aS'crowd panic'
p4302
aS'twitch'
p4303
aS'beer bottle'
p4304
aS'door closed'
p4305
aS'tsunami'
p4306
aS'death sound'
p4307
aS'game jump'
p4308
aS'r&b'
p4309
aS'ghost scream'
p4310
aS'rubber band'
p4311
aS'groovy'
p4312
aS'pick up phone'
p4313
aS'meditation bell'
p4314
aS'masturbating'
p4315
aS'laser blast'
p4316
aS'ambient piano'
p4317
aS'blood '
p4318
aS'm4'
p4319
aS'slimy'
p4320
aS'morocco'
p4321
aS'sexy female'
p4322
aS'musik'
p4323
aS'sine'
p4324
aS'nose'
p4325
aS'firetruck'
p4326
aS'chewing gum'
p4327
aS'equip'
p4328
aS'chair '
p4329
aS'fast steps'
p4330
aS'cell'
p4331
aS'glide'
p4332
aS'cocktail'
p4333
aS'finger tap'
p4334
aS'quotes'
p4335
aS'boomerang'
p4336
aS'household'
p4337
aS'panther'
p4338
aS'car arriving'
p4339
aS'well'
p4340
aS'spokes'
p4341
aS'wind whistling'
p4342
aS'techno music'
p4343
aS'trap snare'
p4344
aS'slow walk'
p4345
aS'sneakers'
p4346
aS'cigar'
p4347
aS'sports crowd'
p4348
aS'wall hit'
p4349
aS'frost'
p4350
aS'stair'
p4351
aS'airplane take off'
p4352
aS'girl giggle'
p4353
aS'suspance'
p4354
aS'house beat'
p4355
aS'bag drop'
p4356
aS'humm'
p4357
aS'button sound'
p4358
aS'losing'
p4359
aS'bleeps'
p4360
aS'male shout'
p4361
aS'boat '
p4362
aS'nail'
p4363
aS'camera snap'
p4364
aS'mallet'
p4365
aS'rice'
p4366
aS'landscape'
p4367
aS'plim'
p4368
aS'landslide'
p4369
aS'patriotic'
p4370
aS'crowd walking'
p4371
aS'table hit'
p4372
aS'roland'
p4373
aS'cum'
p4374
aS'send'
p4375
aS'yeah!'
p4376
aS'early morning'
p4377
aS'sniper shot'
p4378
aS'vinil'
p4379
aS'celestial'
p4380
aS'soccer kick'
p4381
aS'drumming'
p4382
aS'applause '
p4383
aS'conveyor'
p4384
aS'anime shing'
p4385
aS'footsteps gravel'
p4386
aS'fairy tale'
p4387
aS'underwater bubbles'
p4388
aS'fridge door'
p4389
aS'bar crowd'
p4390
aS'robot arm'
p4391
aS'gun shot '
p4392
aS'ants'
p4393
aS'football game'
p4394
aS'cave '
p4395
aS'hay'
p4396
aS'cash machine'
p4397
aS'flame thrower'
p4398
aS'breath out'
p4399
aS'force'
p4400
aS'dog yelp'
p4401
aS'spain'
p4402
aS'civil war'
p4403
aS'succes'
p4404
aS'cosmic'
p4405
aS'slow breathing'
p4406
aS'door banging'
p4407
aS'tv channel'
p4408
aS'pour water'
p4409
aS'clave'
p4410
aS'volleyball'
p4411
aS'reggae '
p4412
aS'lifting'
p4413
aS'risas'
p4414
aS'mobile ring'
p4415
aS'peel'
p4416
aS'mood'
p4417
aS'peru'
p4418
aS'intros'
p4419
aS'phone alarm'
p4420
aS'ha ha'
p4421
aS'old record'
p4422
aS'fall floor'
p4423
aS'ammo'
p4424
aS'face punch'
p4425
aS'bmw'
p4426
aS'bus door'
p4427
aS'cinematic drum'
p4428
aS'cassette tape'
p4429
aS'dynamite'
p4430
aS'funfair'
p4431
aS'zebra'
p4432
aS'claping'
p4433
aS'glass table'
p4434
aS'eletric'
p4435
aS'happy background'
p4436
aS'man running'
p4437
aS'horse race'
p4438
aS'found'
p4439
aS'watering can'
p4440
aS'french music'
p4441
aS'velcro'
p4442
aS'get up'
p4443
aS'yelp'
p4444
aS'high tech'
p4445
aS'wild'
p4446
aS'hospital sounds'
p4447
aS'toot'
p4448
aS'hyena'
p4449
aS'laundry'
p4450
aS'dirt road'
p4451
aS'metal slam'
p4452
aS'drilling'
p4453
aS'low battery'
p4454
aS'cockpit'
p4455
aS'metronom'
p4456
aS'distorted'
p4457
aS'indoor ambience'
p4458
aS'dramatic intro'
p4459
aS'laser hit'
p4460
aS'electrocution'
p4461
aS'nighttime'
p4462
aS'airplane engine'
p4463
aS'reverse crash'
p4464
aS'adventure music'
p4465
aS'school ring'
p4466
aS'vault'
p4467
aS'geese'
p4468
aS'phone vibrating'
p4469
aS'wood fire'
p4470
aS'harpsichord'
p4471
aS'room ambiance'
p4472
aS'spawn'
p4473
aS'hatch'
p4474
aS'spoken words'
p4475
aS'fap'
p4476
aS'slipping'
p4477
aS'hard kick'
p4478
aS'swift'
p4479
aS'error sound'
p4480
aS'soccer '
p4481
aS'letter'
p4482
aS'search'
p4483
aS'kookaburra'
p4484
aS'angry scream'
p4485
aS'dark piano'
p4486
aS'arabic music'
p4487
aS'digital '
p4488
aS'clay'
p4489
aS'elephants'
p4490
aS'war cry'
p4491
aS'dog crying'
p4492
aS'washing hands'
p4493
aS'powder'
p4494
aS'background game'
p4495
aS'tuning radio'
p4496
aS'saloon'
p4497
aS'car door opening'
p4498
aS'tyre'
p4499
aS'male moan'
p4500
aS'whooshes'
p4501
aS'insert'
p4502
aS'huh?'
p4503
aS'knife hit'
p4504
aS'heart beats'
p4505
aS'lamborghini'
p4506
aS'heart rate'
p4507
aS'spaceship '
p4508
aS'heavy steps'
p4509
aS'speeding car'
p4510
aS'steel drums'
p4511
aS'strum'
p4512
aS'shaving'
p4513
aS'scream female'
p4514
aS'soccer goal'
p4515
aS'record skip'
p4516
aS'slamming door'
p4517
aS'pan flute'
p4518
aS'swarm'
p4519
aS'drink water'
p4520
aS'freedom'
p4521
aS'tones'
p4522
aS'conveyor belt'
p4523
aS'fire works'
p4524
aS'lecture'
p4525
aS'hip hop '
p4526
aS'mission'
p4527
aS'group'
p4528
aS'large door'
p4529
aS' footsteps'
p4530
aS'car drift'
p4531
aS'eruption'
p4532
aS'blinds'
p4533
aS'vespa'
p4534
aS'cage'
p4535
aS'trigger'
p4536
aS'camp'
p4537
aS'woodwind'
p4538
aS'police whistle'
p4539
aS'sub drop'
p4540
aS'traffic '
p4541
aS' piano'
p4542
aS'synth pad'
p4543
aS'wolf growl'
p4544
aS'running fast'
p4545
aS'sexy music'
p4546
aS'vocal sample'
p4547
aS'ambient drone'
p4548
aS'word'
p4549
aS'ambient horror'
p4550
aS'fairy dust'
p4551
aS'access'
p4552
aS'dizzy'
p4553
aS'airplane '
p4554
aS'machine '
p4555
aS'nails'
p4556
aS'naruto'
p4557
aS'impact '
p4558
aS'slowdown'
p4559
aS'asteroid'
p4560
aS'lovely'
p4561
aS'thai'
p4562
aS'bounce ball'
p4563
aS'please'
p4564
aS'bus '
p4565
aS'running man'
p4566
aS'dreaming'
p4567
aS'pulling'
p4568
aS'distant traffic'
p4569
aS'warning alarm'
p4570
aS'dubstep drop'
p4571
aS'watering'
p4572
aS'evening'
p4573
aS'wind mountain'
p4574
aS'guillotine'
p4575
aS'violence'
p4576
aS'gear shift'
p4577
aS'washer dryer'
p4578
aS'horse carriage'
p4579
aS'tv glitch'
p4580
aS'lute'
p4581
aS'stone '
p4582
aS'metal pipe'
p4583
aS'street fighter'
p4584
aS'metal clink'
p4585
aS'tin can'
p4586
aS'korean'
p4587
aS'sleigh bells'
p4588
aS'dawn'
p4589
aS'sneezing'
p4590
aS'desert eagle'
p4591
aS'think'
p4592
aS'dissolve'
p4593
aS'seashore'
p4594
aS'dramatic piano'
p4595
aS'bach'
p4596
aS'cookie'
p4597
aS'cartoon talk'
p4598
aS'porcelain'
p4599
aS'car fast'
p4600
aS'reaction'
p4601
aS'bomb '
p4602
aS'retro music'
p4603
aS'cameras'
p4604
aS'ready go'
p4605
aS'zagi2'
p4606
aS'football goal'
p4607
aS'remote control'
p4608
aS'walking on wood'
p4609
aS'heartbeats'
p4610
aS'rain and thunder'
p4611
aS't rex'
p4612
aS'hip-hop'
p4613
aS'16 bit'
p4614
aS'uplifter'
p4615
aS'forge'
p4616
aS'light off'
p4617
aS'speeding'
p4618
aS'new age'
p4619
aS'street music'
p4620
aS'snapping'
p4621
aS'girl '
p4622
aS'spitting'
p4623
aS'kaching'
p4624
aS'audience laughter'
p4625
aS'siren police'
p4626
aS'plumbing'
p4627
aS'baseball hit'
p4628
aS'pop '
p4629
aS'car door closing'
p4630
aS'rally'
p4631
aS'bossa'
p4632
aS'robot moving'
p4633
aS'blackboard'
p4634
aS'paper bag'
p4635
aS'boy laugh'
p4636
aS'drone '
p4637
aS'cannon fire'
p4638
aS'chasing'
p4639
aS'bass note'
p4640
aS'dress'
p4641
aS'battle '
p4642
aS'glass smashing'
p4643
aS'step '
p4644
aS'big room'
p4645
aS'murmuring'
p4646
aS'tecno'
p4647
aS'armour'
p4648
aS'new'
p4649
aS'see'
p4650
aS'angry '
p4651
aS'military march'
p4652
aS'scuba'
p4653
aS'cat angry'
p4654
aS'snowing'
p4655
aS'record scratching'
p4656
aS'accelerating'
p4657
aS'water bubbles'
p4658
aS'women laughing'
p4659
aS'vinyl rewind'
p4660
aS'wind noise'
p4661
aS'couple'
p4662
aS'lizard'
p4663
aS'vapor'
p4664
aS'charge up'
p4665
aS'mac'
p4666
aS'wub'
p4667
aS'eas'
p4668
aS'metal drums'
p4669
aS'trap beat'
p4670
aS'high score'
p4671
aS'mission impossible'
p4672
aS'woman talk'
p4673
aS'fax'
p4674
aS'turn page'
p4675
aS'exhaust'
p4676
aS'orchestra '
p4677
aS'barbecue'
p4678
aS'sorrow'
p4679
aS'beach sounds'
p4680
aS'throat'
p4681
aS'castanet'
p4682
aS'space engine'
p4683
aS'awkward'
p4684
aS'stomach growl'
p4685
aS'door break'
p4686
aS'morph'
p4687
aS'sport car'
p4688
aS'cursing'
p4689
aS'industrial '
p4690
aS'timelapse'
p4691
aS'derp'
p4692
aS'rattle snake'
p4693
aS'drug'
p4694
aS'roman'
p4695
aS'tumbleweed'
p4696
aS'game music loop'
p4697
aS'water bucket'
p4698
aS'guitar intro'
p4699
aS'typing '
p4700
aS'hologram'
p4701
aS'training'
p4702
aS'hud'
p4703
aS'wood cracking'
p4704
aS'ice cube'
p4705
aS'gurgling'
p4706
aS'bird wing'
p4707
aS'fire siren'
p4708
aS'web'
p4709
aS'melting'
p4710
aS'friends'
p4711
aS'knocking on door'
p4712
aS'gameboy'
p4713
aS'mm'
p4714
aS'great'
p4715
aS'interior'
p4716
aS'ice cubes'
p4717
aS'nature ambient'
p4718
aS'ooo'
p4719
aS'sword battle'
p4720
aS'pops'
p4721
aS'tardis'
p4722
aS'quote'
p4723
aS'sheath'
p4724
aS'doll'
p4725
aS'scream horror'
p4726
aS'duct tape'
p4727
aS'dog howling'
p4728
aS'winding'
p4729
aS'creaking wood'
p4730
aS'underwater '
p4731
aS'dumb'
p4732
aS'tree wind'
p4733
aS'cheese'
p4734
aS'train stop'
p4735
aS'dubstep loop'
p4736
aS'synth bass'
p4737
aS'bar music'
p4738
aS'alligator'
p4739
aS'sine wave'
p4740
aS'anxious'
p4741
aS'ambient city'
p4742
aS'scrach'
p4743
aS'car explosion'
p4744
aS'fire whoosh'
p4745
aS'beer can'
p4746
aS'gabber'
p4747
aS'blah'
p4748
aS'glug'
p4749
aS'blood splat'
p4750
aS'folk music'
p4751
aS'handle'
p4752
aS'howling wolf'
p4753
aS'copter'
p4754
aS'gem'
p4755
aS'crying '
p4756
aS'erhu'
p4757
aS'chocolate'
p4758
aS'sparkler'
p4759
aS'bottle break'
p4760
aS'dance '
p4761
aS'tension '
p4762
aS'cape'
p4763
aS'children play'
p4764
aS'release'
p4765
aS'old car horn'
p4766
aS'notification sound'
p4767
aS'phone ringtone'
p4768
aS'piano chords'
p4769
aS'paranormal'
p4770
aS'peacock'
p4771
aS'crystals'
p4772
aS'porsche'
p4773
aS'cupboard'
p4774
aS'safari'
p4775
aS'dinosaurs'
p4776
aS'padlock'
p4777
aS'door hit'
p4778
aS'phone voice'
p4779
aS'drones'
p4780
aS'spitfire'
p4781
aS'grr'
p4782
aS'water pool'
p4783
aS'titanic'
p4784
aS'giggles'
p4785
aS'wood creaking'
p4786
aS'sub kick'
p4787
aS'heavy hit'
p4788
aS'wailing'
p4789
aS'single-note'
p4790
aS'car screeching'
p4791
aS'soda can'
p4792
aS'bazooka'
p4793
aS'alien '
p4794
aS'james bond'
p4795
aS'man '
p4796
aS'metal screech'
p4797
aS'hiking'
p4798
aS'plants'
p4799
aS'night club'
p4800
aS'flock'
p4801
aS'old piano'
p4802
aS'dog run'
p4803
aS'greece'
p4804
aS'romantic music'
p4805
aS'hard'
p4806
aS'room '
p4807
aS'heavy fall'
p4808
aS'archery'
p4809
aS'footsteps on wood'
p4810
aS'cat growl'
p4811
aS'finished'
p4812
aS'washing'
p4813
aS'speed boat'
p4814
aS'tunder'
p4815
aS'stab knife'
p4816
aS'university'
p4817
aS'computer voice'
p4818
aS'allahu akbar'
p4819
aS'jazz loop'
p4820
aS'air pressure'
p4821
aS'motorcycle '
p4822
aS'funny voice'
p4823
aS'radio beep'
p4824
aS'fitness'
p4825
aS'percussion '
p4826
aS'happy guitar'
p4827
aS'phone notification'
p4828
aS'granade'
p4829
aS'asia'
p4830
aS'fapping'
p4831
aS'cat purring'
p4832
aS'fall over'
p4833
aS'brazilian'
p4834
aS'cane'
p4835
aS'cat meowing'
p4836
aS'singing bowls'
p4837
aS'ant'
p4838
aS'sneaky'
p4839
aS'car engine start'
p4840
aS'soccer whistle'
p4841
aS'creepy sounds'
p4842
aS'funny song'
p4843
aS'vehicle'
p4844
aS'coach whistle'
p4845
aS'galloping'
p4846
aS'yodel'
p4847
aS'defibrillator'
p4848
aS'hi hats'
p4849
aS'violine'
p4850
aS'dog breathing'
p4851
aS'evil music'
p4852
aS'woo hoo'
p4853
aS'downtown'
p4854
aS'gun drop'
p4855
aS'working'
p4856
aS'chiken'
p4857
aS'footsteps tile'
p4858
aS'train door'
p4859
aS'cosmos'
p4860
aS'radiation'
p4861
aS'engine '
p4862
aS'rock break'
p4863
aS'8mm'
p4864
aS'.ogg'
p4865
aS'man grunt'
p4866
aS'kisses'
p4867
aS'metal drum'
p4868
aS'net'
p4869
aS'passos'
p4870
aS'leopard'
p4871
aS'quirky'
p4872
aS'long'
p4873
aS'breaking window'
p4874
aS'gate opening'
p4875
aS'laser shoot'
p4876
aS'bell door'
p4877
aS'gothic'
p4878
aS'skull'
p4879
aS'bone snap'
p4880
aS'hang'
p4881
aS'star wars '
p4882
aS'boy scream'
p4883
aS'foam'
p4884
aS'steps concrete'
p4885
aS'alley'
p4886
aS'scotland'
p4887
aS'advertisement'
p4888
aS'slowmotion'
p4889
aS'air woosh'
p4890
aS'surfing'
p4891
aS'water flowing'
p4892
aS'sword cut'
p4893
aS'crowded'
p4894
aS'sob'
p4895
aS'dangerous'
p4896
aS'dialog'
p4897
aS'digital noise'
p4898
aS'dj scratching'
p4899
aS'circuit'
p4900
aS'coach'
p4901
aS'ball '
p4902
aS'pop sound'
p4903
aS'cumbia'
p4904
aS'angel choir'
p4905
aS'ray gun'
p4906
aS'coin '
p4907
aS'night ambient'
p4908
aS'repair'
p4909
aS'chain saw'
p4910
aS'pebbles'
p4911
aS'walk wood'
p4912
aS'guitar note'
p4913
aS'war sound'
p4914
aS'happy tune'
p4915
aS'zoom out'
p4916
aS'african drum'
p4917
aS'wind turbine'
p4918
aS'walking street'
p4919
aS'walking forest'
p4920
aS'wah wah wah'
p4921
aS'submarine sonar'
p4922
aS'rain roof'
p4923
aS'woman gasp'
p4924
aS'awww'
p4925
aS'rock slide'
p4926
aS'voice mail'
p4927
aS'bear growl'
p4928
aS'waiting music'
p4929
aS'bomb whistle'
p4930
aS'gas stove'
p4931
aS'hoof'
p4932
aS'grass footsteps'
p4933
aS'feather'
p4934
aS'car engine '
p4935
aS'glory'
p4936
aS'car moving'
p4937
aS'hats'
p4938
aS'reverse '
p4939
aS'3 2 1'
p4940
aS'hoot'
p4941
aS'rubber duck'
p4942
aS'3d'
p4943
aS'eyes'
p4944
aS'snow '
p4945
aS'hospital beep'
p4946
aS'swear'
p4947
aS'you'
p4948
aS'shiver'
p4949
aS'wood box'
p4950
aS'time up'
p4951
aS'wind in trees'
p4952
aS'chairs'
p4953
aS'wind ambient'
p4954
aS'deep space'
p4955
aS'tv beep'
p4956
aS'darbuka'
p4957
aS'nascar'
p4958
aS'deaf'
p4959
aS'moan sex'
p4960
aS'iron man'
p4961
aS'glasses clinking'
p4962
aS'lazer gun'
p4963
aS'electric sound'
p4964
aS'babbling brook'
p4965
aS'metal gear'
p4966
aS'electronics'
p4967
aS'bed sheets'
p4968
aS'motorcycle engine'
p4969
aS'clear throat'
p4970
aS'car tire'
p4971
aS'neurofunk'
p4972
aS'pool splash'
p4973
aS'water falling'
p4974
aS'press button'
p4975
aS'water pipe'
p4976
aS'run grass'
p4977
aS'wood chop'
p4978
aS'railway station'
p4979
aS'tv switch'
p4980
aS'swedish'
p4981
aS'sword sheath'
p4982
aS'tearing'
p4983
aS'tile'
p4984
aS'v8 engine'
p4985
aS'security alarm'
p4986
aS'wasp'
p4987
aS'start car'
p4988
aS'water boiling'
p4989
aS'stadion'
p4990
aS'video game sounds'
p4991
aS'simple'
p4992
aS'walking concrete'
p4993
aS'shotgun reload'
p4994
aS'car reverse'
p4995
aS'game coin'
p4996
aS'snowstorm'
p4997
aS'card shuffle'
p4998
aS'goofy'
p4999
aS'throw up'
p5000
aS'car door '
p5001
aS'hand bell'
p5002
aS'curious'
p5003
aS'hip hop loop'
p5004
aS'channel change'
p5005
aS'exploding'
p5006
aS'clacson'
p5007
aS'party sound'
p5008
aS'low drone'
p5009
aS'nuclear bomb'
p5010
aS'idm'
p5011
aS'notification '
p5012
aS'metal scratch'
p5013
aS'office noise'
p5014
aS'mechanics'
p5015
aS'predator'
p5016
aS'keyboard click'
p5017
aS'radio sound'
p5018
aS'mario jump'
p5019
aS'bass line'
p5020
aS'uzi'
p5021
aS'metall'
p5022
aS'tackle'
p5023
aS'waves '
p5024
aS'midnight'
p5025
aS'stone break'
p5026
aS'train bell'
p5027
aS'jungle music'
p5028
aS'sword stab'
p5029
aS'laugh '
p5030
aS'text alert'
p5031
aS'd&b loop'
p5032
aS'thriller music'
p5033
aS'coat'
p5034
aS'glitch noise'
p5035
aS'chopping wood'
p5036
aS'falling whistle'
p5037
aS'dragon '
p5038
aS'guitar melody'
p5039
aS'engine car'
p5040
aS'hard drive'
p5041
aS'footstep metal'
p5042
aS'machine hum'
p5043
aS'exit'
p5044
aS'mattias lahoud'
p5045
aS'giraffe'
p5046
aS'metal rattle'
p5047
aS'ice breaking'
p5048
aS'cyborg'
p5049
aS'puerta'
p5050
aS'harmonic'
p5051
aS'dawn chorus'
p5052
aS'quiet room'
p5053
aS'casette'
p5054
aS'clothes '
p5055
aS'radio switch'
p5056
aS'beach ambience'
p5057
aS'electronica'
p5058
aS'radio frequency'
p5059
aS'bee buzz'
p5060
aS'ring ring'
p5061
aS'animal growl'
p5062
aS'screen door'
p5063
aS'animal scream'
p5064
aS'tent'
p5065
aS'blocks'
p5066
aS'808 kick'
p5067
aS'bodhran'
p5068
aS'accept'
p5069
aS'bow and arrow'
p5070
aS'airport '
p5071
aS'ax'
p5072
aS'lions'
p5073
aS'digital typing'
p5074
aS'angry mob'
p5075
aS'metal kick'
p5076
aS'cork pop'
p5077
aS'bassoon'
p5078
aS'motorcycle start'
p5079
aS'hong kong'
p5080
aS'beep sound'
p5081
aS'mouth pop'
p5082
aS'hunting'
p5083
aS'music intro'
p5084
aS'super hero'
p5085
aS'impact metal'
p5086
aS'tock'
p5087
aS'impacts'
p5088
aS'shut'
p5089
aS'party sounds'
p5090
aS'stuck'
p5091
aS'reggaeton'
p5092
aS'zapping'
p5093
aS'parking'
p5094
aS'wood snap'
p5095
aS'saying'
p5096
aS'wet fart'
p5097
aS'rocket '
p5098
aS'won'
p5099
aS'9mm'
p5100
aS'atm'
p5101
aS'vocal female'
p5102
aS'deep drum'
p5103
aS'bare feet'
p5104
aS'delete'
p5105
aS'button push'
p5106
aS'clothe'
p5107
aS'breath in'
p5108
aS'cell door'
p5109
aS'beat '
p5110
aS'drums '
p5111
aS'bell tree'
p5112
aS'empty gun'
p5113
aS'bus engine'
p5114
aS'slap bass'
p5115
aS'broken window'
p5116
aS'toddler'
p5117
aS'calm wind'
p5118
aS'tension music'
p5119
aS'car revving'
p5120
aS'girls talking'
p5121
aS'mic'
p5122
aS'national anthem'
p5123
aS'laughing '
p5124
aS'praying'
p5125
aS'jazz drum'
p5126
aS'penis'
p5127
aS'male breathing'
p5128
aS'packing'
p5129
aS'midi'
p5130
aS'trill'
p5131
aS'eye blink'
p5132
aS'8 bit explosion'
p5133
aS'trance loop'
p5134
aS'hydrophone'
p5135
aS'base drum'
p5136
aS'escalator'
p5137
aS'butter'
p5138
aS'grass wind'
p5139
aS'birds flapping'
p5140
aS'gulping'
p5141
aS'cafe ambience'
p5142
aS'finale'
p5143
aS'door slide'
p5144
aS'splashing water'
p5145
aS'clap hand'
p5146
aS'street ambient'
p5147
aS'children laughter'
p5148
aS'temple bell'
p5149
aS'cops'
p5150
aS'starting car'
p5151
aS'taps'
p5152
aS'thunder lightning'
p5153
aS'pissing'
p5154
aS'space atmosphere'
p5155
aS'party noise'
p5156
aS'shakuhachi'
p5157
aS'rape'
p5158
aS'swan'
p5159
aS'saxaphone'
p5160
aS'steampunk'
p5161
aS'president'
p5162
aS'sea shore'
p5163
aS'people cheering'
p5164
aS'afraid'
p5165
aS'click mouse'
p5166
aS'people laugh'
p5167
aS'nightclub'
p5168
aS'child laughter'
p5169
aS'rainfall'
p5170
aS'diesel engine'
p5171
aS'rope '
p5172
aS'comics'
p5173
aS'pier'
p5174
aS'electric arc'
p5175
aS'game fail'
p5176
aS'water spill'
p5177
aS'fly buzz'
p5178
aS'tv background'
p5179
aS'hang drum'
p5180
aS'wip'
p5181
aS'hard hit'
p5182
aS' applause'
p5183
aS'extinguish'
p5184
aS'car approach'
p5185
aS'hah'
p5186
aS'aura'
p5187
aS'guitarra'
p5188
aS'car crash '
p5189
aS'film camera'
p5190
aS'bell chime'
p5191
aS'lobby'
p5192
aS'surround'
p5193
aS'bone breaking'
p5194
aS'lofi'
p5195
aS'tick tack'
p5196
aS'bubles'
p5197
aS'metal scraping'
p5198
aS'24bit'
p5199
aS'metal snare'
p5200
aS'90bpm'
p5201
aS'military drums'
p5202
aS'wedding music'
p5203
aS'night owl'
p5204
aS'object falling'
p5205
aS'cups'
p5206
aS'ominous music'
p5207
aS'christmas music'
p5208
aS'scary forest'
p5209
aS'egyptian'
p5210
aS'octopus'
p5211
aS'pain scream'
p5212
aS'rotor'
p5213
aS'get ready'
p5214
aS'plain'
p5215
aS'ice glass'
p5216
aS'nuclear explosion'
p5217
aS'fat'
p5218
aS'restaurant '
p5219
aS'hip hop beats'
p5220
aS'breath female'
p5221
aS'curse'
p5222
aS'horror strings'
p5223
aS'bumper'
p5224
aS'dirty talk'
p5225
aS'squeak wood'
p5226
aS'bass slide'
p5227
aS'dirt bike'
p5228
aS'store bell'
p5229
aS'drop metal'
p5230
aS'suspens'
p5231
aS'drum hits'
p5232
aS'screaming people'
p5233
aS'malfunction'
p5234
aS'sirena'
p5235
aS'kitchen '
p5236
aS'soccer game'
p5237
aS'knuckles'
p5238
aS'alone'
p5239
aS'mario bros'
p5240
aS'110 bpm'
p5241
aS'impulse response'
p5242
aS'tray'
p5243
aS'japanese voice'
p5244
aS'water droplet'
p5245
aS'traffic noise'
p5246
aS'wail'
p5247
aS'running on grass'
p5248
aS'whining'
p5249
aS'princess'
p5250
aS'vibrating'
p5251
aS'railroad'
p5252
aS'trailer '
p5253
aS'run away'
p5254
aS'backround music'
p5255
aS'idle'
p5256
aS'pac man'
p5257
aS'ballet'
p5258
aS'kaboom'
p5259
aS'out'
p5260
aS'cartoon walk'
p5261
aS'moose'
p5262
aS'object fall'
p5263
aS'beat loop'
p5264
aS'jingle bell'
p5265
aS'animal running'
p5266
aS'alien sounds'
p5267
aS'cans'
p5268
aS'comical'
p5269
aS'server'
p5270
aS'dubstep '
p5271
aS'step grass'
p5272
aS'standing up'
p5273
aS'step wood'
p5274
aS'parking lot'
p5275
aS'siren '
p5276
aS'vagina'
p5277
aS'demon scream'
p5278
aS'fist fight'
p5279
aS'upset'
p5280
aS'ears ringing'
p5281
aS'fail sound'
p5282
aS'coke'
p5283
aS'handclap'
p5284
aS'dog breath'
p5285
aS'finger click'
p5286
aS'clapperboard'
p5287
aS'footsteps stairs'
p5288
aS'backyard'
p5289
aS'female laughing'
p5290
aS'beginning'
p5291
aS'levelup'
p5292
aS'call of duty'
p5293
aS'key door'
p5294
aS'log'
p5295
aS'junk'
p5296
aS'lp'
p5297
aS'menu sound'
p5298
aS'knob'
p5299
aS'metal step'
p5300
aS'mono'
p5301
aS'jungle drums'
p5302
aS'yeehaw'
p5303
aS'jazz bass'
p5304
aS'risa'
p5305
aS'angry dog'
p5306
aS'magazine'
p5307
aS'schoolbell'
p5308
aS'bass beat'
p5309
aS'jet plane'
p5310
aS'shakers'
p5311
aS'ascend'
p5312
aS'metal creaking'
p5313
aS'tambor'
p5314
aS'lamb'
p5315
aS'title music'
p5316
aS'laughing crowd'
p5317
aS'short music'
p5318
aS'hymn'
p5319
aS'dick'
p5320
aS'fart sound'
p5321
aS'easy'
p5322
aS'horse hooves'
p5323
aS'epic intro'
p5324
aS'firecrackers'
p5325
aS'comet'
p5326
aS'hopeful'
p5327
aS'drop bass'
p5328
aS'808 bass'
p5329
aS'8bit game'
p5330
aS'acoustic guitar '
p5331
aS'background sounds'
p5332
aS'air conditioning'
p5333
aS'bike wheel'
p5334
aS'war siren'
p5335
aS'crying girl'
p5336
aS'break beat'
p5337
aS'weld'
p5338
aS'coffee cup'
p5339
aS'cannon shot'
p5340
aS'whizz'
p5341
aS'chimp'
p5342
aS'car driving off'
p5343
aS'worm'
p5344
aS'plin'
p5345
aS'front door'
p5346
aS'red alert'
p5347
aS'flight attendant'
p5348
aS'resturant'
p5349
aS'fiesta'
p5350
aS'press conference'
p5351
aS'hip hop bass'
p5352
aS'sad guitar'
p5353
aS'muezzin'
p5354
aS'people shouting'
p5355
aS'muzak'
p5356
aS'rock loop'
p5357
aS'noo'
p5358
aS'paper slide'
p5359
aS'joker'
p5360
aS'sci fi door'
p5361
aS'solo'
p5362
aS'thunder rumble'
p5363
aS'squawk'
p5364
aS'sticker'
p5365
aS'stone water'
p5366
aS'techno bass'
p5367
aS'animal roar'
p5368
aS'amazon'
p5369
aS'raspberry'
p5370
aS'bullet ricochet'
p5371
aS'ambience room'
p5372
aS'promo'
p5373
aS'door buzzer'
p5374
aS'accordian'
p5375
aS'dreams'
p5376
aS'kettle whistle'
p5377
aS'dutch'
p5378
aS'kids play'
p5379
aS'discharge'
p5380
aS'magnum'
p5381
aS'dishwasher'
p5382
aS'metal chain'
p5383
aS'truck passing'
p5384
aS'musical box'
p5385
aS'wings flap'
p5386
aS'ka ching'
p5387
aS'wood saw'
p5388
aS'gallery'
p5389
aS'trompet'
p5390
aS'harp '
p5391
aS' hit'
p5392
aS'flickering light'
p5393
aS'flipper'
p5394
aS'grocery store'
p5395
aS'flashbang'
p5396
aS'steam hiss'
p5397
aS'freeway'
p5398
aS'steps floor'
p5399
aS'g'
aS'projectile'
p5400
aS'waterfalls'
p5401
aS'female talking'
p5402
aS'page turning'
p5403
aS'wheelbarrow'
p5404
aS'grime'
p5405
aS'basketball game'
p5406
aS'yea'
p5407
aS'grrr'
p5408
aS'bicycle '
p5409
aS'tree branch'
p5410
aS'hitting ground'
p5411
aS'breakdown'
p5412
aS'horse run'
p5413
aS'calm water'
p5414
aS'lion growl'
p5415
aS'african music'
p5416
aS'miracle'
p5417
aS'cliff'
p5418
aS'kid scream'
p5419
aS'dj drop'
p5420
aS'monster death'
p5421
aS'download'
p5422
aS'large crowd'
p5423
aS'crash glass'
p5424
aS'lips'
p5425
aS'croak'
p5426
aS'noisy'
p5427
aS'coin sound'
p5428
aS'medieval '
p5429
aS'crying woman'
p5430
aS'info'
p5431
aS'clap hands'
p5432
aS'man breath'
p5433
aS'wc'
p5434
aS'spaceship engine'
p5435
aS'movie projector'
p5436
aS'whoos'
p5437
aS'splash '
p5438
aS'laugh female'
p5439
aS'woman sing'
p5440
aS'sliding doors'
p5441
aS'no signal'
p5442
aS'tv sounds'
p5443
aS'sidewalk'
p5444
aS'quadcopter'
p5445
aS'aircraft guns'
p5446
aS'satanic'
p5447
aS'ak-47'
p5448
aS'roaring fire'
p5449
aS'gong '
p5450
aS'robot walking'
p5451
aS'falling bomb'
p5452
aS'running feet'
p5453
aS'cartoon explosion'
p5454
aS'piano song'
p5455
aS'bed squeak'
p5456
aS'open the door'
p5457
aS'audience applause'
p5458
aS'open book'
p5459
aS'box open'
p5460
aS'pum'
p5461
aS'bin'
p5462
aS'opener'
p5463
aS'bell sound'
p5464
aS'weight'
p5465
aS'cracking wood'
p5466
aS'boom '
p5467
aS'writting'
p5468
aS'closet'
p5469
aS'are you ready'
p5470
aS'wind soft'
p5471
aS'desert ambience'
p5472
aS'card flip'
p5473
aS'wooden door open'
p5474
aS'dodge'
p5475
aS'machine guns'
p5476
aS'wood knock'
p5477
aS'children crying'
p5478
aS'unsheath'
p5479
aS'drop object'
p5480
aS'happy dog'
p5481
aS'electronic '
p5482
aS'hit door'
p5483
aS'energetic'
p5484
aS'gust of wind'
p5485
aS'tire squeal'
p5486
aS'fast breathing'
p5487
aS'scribbling'
p5488
aS'alarm sound'
p5489
aS'sunny'
p5490
aS'smooth jazz'
p5491
aS'kawaii'
p5492
aS'shirt'
p5493
aS'.mp3'
p5494
aS'toilet flushing'
p5495
aS'accordeon'
p5496
aS'plink'
p5497
aS'scream girl'
p5498
aS'advertising'
p5499
aS'pouring coffee'
p5500
aS'screaming '
p5501
aS'barn'
p5502
aS'rushing water'
p5503
aS'small town'
p5504
aS'cartoon slide'
p5505
aS'running breathing'
p5506
aS'siren horn'
p5507
aS'bla bla'
p5508
aS'sandstorm'
p5509
aS'bottle cap'
p5510
aS'perfect'
p5511
aS'game fx'
p5512
aS'ripple'
p5513
aS'gasps'
p5514
aS'walking on gravel'
p5515
aS'geiger counter'
p5516
aS'children talking'
p5517
aS'compressed air'
p5518
aS'spiral'
p5519
aS'children singing'
p5520
aS'text sound'
p5521
aS'cry baby'
p5522
aS'tic toc'
p5523
aS'din'
p5524
aS'tinitus'
p5525
aS'comedic'
p5526
aS'slow mo'
p5527
aS'game end'
p5528
aS'kitchen sounds'
p5529
aS'analog synth'
p5530
aS'gate close'
p5531
aS'metal door slam'
p5532
aS'weights'
p5533
aS'military drum'
p5534
aS'world'
p5535
aS'lake '
p5536
aS'tren'
p5537
aS'audience cheering'
p5538
aS'twig snap'
p5539
aS'boy crying'
p5540
aS'pass by'
p5541
aS'school '
p5542
aS'people crying'
p5543
aS'respiration'
p5544
aS'phonograph'
p5545
aS'ohhh'
p5546
aS'acoustic snare'
p5547
aS'purchase'
p5548
aS'crowd running'
p5549
aS'car wheel'
p5550
aS'reporter'
p5551
aS'cuba'
p5552
aS'brain'
p5553
aS'radio dial'
p5554
aS'docks'
p5555
aS'breakcore'
p5556
aS'park '
p5557
aS'clown horn'
p5558
aS'canyon'
p5559
aS'sucess'
p5560
aS'ceremony'
p5561
aS'sweeper'
p5562
aS'falling metal'
p5563
aS'streets'
p5564
aS'fishing reel'
p5565
aS'slow whoosh'
p5566
aS'greek music'
p5567
aS'sexy moan'
p5568
aS'fighter jet'
p5569
aS'sword draw'
p5570
aS'foto'
p5571
aS'thrust'
p5572
aS'leak'
p5573
aS'ticker'
p5574
aS'inside train'
p5575
aS'timber'
p5576
aS'massage'
p5577
aS'mind'
p5578
aS'8 bit sounds'
p5579
aS'knife cutting'
p5580
aS'accent'
p5581
aS'metal smash'
p5582
aS'tannoy'
p5583
aS'anthem'
p5584
aS'mist'
p5585
aS'time out'
p5586
aS'car drive away'
p5587
aS'monster breathing'
p5588
aS'puking'
p5589
aS'beads'
p5590
aS'movie '
p5591
aS'recharge'
p5592
aS'busy'
p5593
aS'people chatting'
p5594
aS'canned laughter'
p5595
aS'heavy thud'
p5596
aS'whip '
p5597
aS'flat'
p5598
aS'who'
p5599
aS'flickering'
p5600
aS'zombie scream'
p5601
aS'flying birds'
p5602
aS'cockroach'
p5603
aS'conch'
p5604
aS'dry thunder'
p5605
aS'acoustic kick'
p5606
aS'delay'
p5607
aS'ketchup'
p5608
aS'flash '
p5609
aS'dryer'
p5610
aS'mellow'
p5611
aS'hip'
p5612
aS'dog eating'
p5613
aS'map'
p5614
aS'gitar'
p5615
aS'drips'
p5616
aS'instrumental '
p5617
aS'falling sound'
p5618
aS'countdown beep'
p5619
aS'tanks'
p5620
aS'fantasy music'
p5621
aS'sea sound'
p5622
aS'gun fight'
p5623
aS'suprised'
p5624
aS'footsteps pavement'
p5625
aS'screwdriver'
p5626
aS'water pump'
p5627
aS'punch face'
p5628
aS'wheel of fortune'
p5629
aS'rolling '
p5630
aS'unlock door'
p5631
aS'ass'
p5632
aS'voodoo'
p5633
aS'cave ambience'
p5634
aS'walking sand'
p5635
aS'bell tower'
p5636
aS't-rex'
p5637
aS'brown noise'
p5638
aS'broken record'
p5639
aS'iphone ringing'
p5640
aS'audience '
p5641
aS'motocross'
p5642
aS'cartoon running'
p5643
aS'mountain bike'
p5644
aS'blue'
p5645
aS'large bell'
p5646
aS'boar'
p5647
aS'writing '
p5648
aS'crash wood'
p5649
aS'bullet '
p5650
aS'crickets night'
p5651
aS'car arrive'
p5652
aS'crowd ambience'
p5653
aS'arrow hit'
p5654
aS'cycle'
p5655
aS'progressive'
p5656
aS'deep voice'
p5657
aS'pa'
p5658
aS'door opening '
p5659
aS'radio jingles'
p5660
aS'choirs'
p5661
aS'nyc subway'
p5662
aS'deflate'
p5663
aS'paper falling'
p5664
aS'elevator button'
p5665
aS'pi'
p5666
aS'electric saw'
p5667
aS'flipping'
p5668
aS'subbass'
p5669
aS'falling cartoon'
p5670
aS' steps'
p5671
aS'fairground'
p5672
aS'hypnotic'
p5673
aS'water droplets'
p5674
aS'game theme'
p5675
aS'screeching'
p5676
aS'lightning '
p5677
aS'gentle'
p5678
aS'spanish music'
p5679
aS'musica'
p5680
aS'ghetto'
p5681
aS'talking '
p5682
aS'magic music'
p5683
aS'f1 car'
p5684
aS'strech'
p5685
aS'metal footsteps'
p5686
aS'8 bit loop'
p5687
aS'small dog bark'
p5688
aS'aboriginal'
p5689
aS'sword attack'
p5690
aS'clock tower'
p5691
aS'tempo'
p5692
aS'crowd yelling'
p5693
aS'soft hit'
p5694
aS'dark atmosphere'
p5695
aS'car chase'
p5696
aS'dip'
p5697
aS'breath '
p5698
aS'chattering'
p5699
aS'beach music'
p5700
aS'christmas bells'
p5701
aS'bomber'
p5702
aS'drum break'
p5703
aS'bouncy'
p5704
aS'queen'
p5705
aS'open gate'
p5706
aS'ringing phone'
p5707
aS'kids screaming'
p5708
aS'psy kick'
p5709
aS'inspirational music'
p5710
aS'open can'
p5711
aS'indonesia'
p5712
aS'reggae drums'
p5713
aS'xylophon'
p5714
aS'ball drop'
p5715
aS'game background music'
p5716
aS'train sound'
p5717
aS'bass drops'
p5718
aS'game sfx'
p5719
aS'witch laugh'
p5720
aS'beer open'
p5721
aS'hey!'
p5722
aS'burner'
p5723
aS'horror suspense'
p5724
aS'creaking metal'
p5725
aS'house kick'
p5726
aS'dinner party'
p5727
aS'allah'
p5728
aS'coal'
p5729
aS'amazed'
p5730
aS'college'
p5731
aS'90s'
p5732
aS'door open '
p5733
aS'summer night'
p5734
aS'door squeek'
p5735
aS'spread'
p5736
aS'dragon ball'
p5737
aS'squeak toy'
p5738
aS'compressor'
p5739
aS'squeaky toy'
p5740
aS'computer start'
p5741
aS'stapler'
p5742
aS'energy '
p5743
aS'signature'
p5744
aS'syringe'
p5745
aS'thumping'
p5746
aS'thunderbolt'
p5747
aS'telefon'
p5748
aS'tumbling'
p5749
aS'steam '
p5750
aS'touching'
p5751
aS'smoke '
p5752
aS'turntable scratch'
p5753
aS'till'
p5754
aS'children screaming'
p5755
aS'lluvia'
p5756
aS'pooping'
p5757
aS'crash metal'
p5758
aS'machine gun fire'
p5759
aS'pavement'
p5760
aS'chewbacca'
p5761
aS'monster attack'
p5762
aS'purse'
p5763
aS'digital beep'
p5764
aS'monster sound'
p5765
aS'record noise'
p5766
aS'clapping '
p5767
aS'interior car'
p5768
aS'religion'
p5769
aS'dry leaves'
p5770
aS'air plane'
p5771
aS'baseball game'
p5772
aS'get'
p5773
aS'bird screech'
p5774
aS'hey '
p5775
aS'boat water'
p5776
aS'holiday'
p5777
aS'cackle'
p5778
aS'human voice'
p5779
aS'footsteps forest'
p5780
aS'warfare'
p5781
aS'gagging'
p5782
aS'wood slide'
p5783
aS'high voltage'
p5784
aS'awe'
p5785
aS'look'
p5786
aS'hoo'
p5787
aS'cattle'
p5788
aS'male vocal'
p5789
aS'final fantasy'
p5790
aS'busy office'
p5791
aS'man cry'
p5792
aS'hippo'
p5793
aS' bell'
p5794
aS'memories'
p5795
aS'hospital room'
p5796
aS'cabin'
p5797
aS'laser sound'
p5798
aS'stage'
p5799
aS'canary'
p5800
aS'surprise '
p5801
aS'razor'
p5802
aS'screamer'
p5803
aS'demolish'
p5804
aS'egg cracking'
p5805
aS'digital camera'
p5806
aS'cheesy'
p5807
aS'dog pant'
p5808
aS'children cheering'
p5809
aS'door shutting'
p5810
aS'drizzle'
p5811
aS'victory music'
p5812
aS'creepy ambient'
p5813
aS'violin music'
p5814
aS'dump'
p5815
aS'train stopping'
p5816
aS'space station'
p5817
aS'long fart'
p5818
aS'fire sound'
p5819
aS'smoke bomb'
p5820
aS'noir'
p5821
aS' fall'
p5822
aS'theme park'
p5823
aS'love '
p5824
aS'game lose'
p5825
aS'mercado'
p5826
aS'game of thrones'
p5827
aS'place'
p5828
aS'gentle waves'
p5829
aS'plastic hit'
p5830
aS'high pitched'
p5831
aS'reactor'
p5832
aS'heavy metal music'
p5833
aS'school playground'
p5834
aS'falling down stairs'
p5835
aS'notifications'
p5836
aS'baby giggle'
p5837
aS'people street'
p5838
aS'bass sound'
p5839
aS'old projector'
p5840
aS'big fire'
p5841
aS'piano horror'
p5842
aS'birds fly'
p5843
aS'arctic'
p5844
aS'crash sound'
p5845
aS'babies'
p5846
aS'chip'
p5847
aS'breaking '
p5848
aS'coin flip'
p5849
aS'book drop'
p5850
aS'clearing throat'
p5851
aS'running music'
p5852
aS'soundscapes'
p5853
aS'whiteboard'
p5854
aS'piano scale'
p5855
aS'space gun'
p5856
aS'toss'
p5857
aS'scatter'
p5858
aS'speedboat'
p5859
aS'trex'
p5860
aS'spells'
p5861
aS'fresh'
p5862
aS'130bpm'
p5863
aS'graduation'
p5864
aS'lid'
p5865
aS'high speed'
p5866
aS'jazz trumpet'
p5867
aS'ho'
p5868
aS'no no no'
p5869
aS'hollywood'
p5870
aS'kids talking'
p5871
aS'iceland'
p5872
aS'happy ending'
p5873
aS'hanging'
p5874
aS'football fans'
p5875
aS'lion '
p5876
aS'funky guitar'
p5877
aS'mug'
p5878
aS'gravity'
p5879
aS'knocking '
p5880
aS'grumbling'
p5881
aS'asmr'
p5882
aS'reloj'
p5883
aS'engine idle'
p5884
aS'bowed'
p5885
aS'rhino'
p5886
aS'conversations'
p5887
aS'bike chain'
p5888
aS'san francisco'
p5889
aS'big band'
p5890
aS'pen '
p5891
aS'burial'
p5892
aS'old plane'
p5893
aS'campana'
p5894
aS'photograph'
p5895
aS'ambient space'
p5896
aS'outdoor crowd'
p5897
aS'wet footsteps'
p5898
aS'telephone '
p5899
aS'workers'
p5900
aS'telegraph'
p5901
aS'trance bass'
p5902
aS'slow heartbeat'
p5903
aS'water ambience'
p5904
aS'split'
p5905
aS'water explosion'
p5906
aS'street ambiance'
p5907
aS'water lapping'
p5908
aS'luggage'
p5909
aS'counter strike'
p5910
aS'ventilation'
p5911
aS'nazi'
p5912
aS'close book'
p5913
aS'windows xp'
p5914
aS'male sex'
p5915
aS'dad'
p5916
aS'worms'
p5917
aS'implosion'
p5918
aS'death '
p5919
aS'trees wind'
p5920
aS'mermaid'
p5921
aS'door wood'
p5922
aS'twinkling'
p5923
aS'metal door opening'
p5924
aS'door unlock'
p5925
aS'gas station'
p5926
aS'michael jackson'
p5927
aS'electronic beep'
p5928
aS'here we go'
p5929
aS'jukebox'
p5930
aS'coconut'
p5931
aS'horror ambiance'
p5932
aS'missile launch'
p5933
aS'dragonfly'
p5934
aS'erase'
p5935
aS'chair scrape'
p5936
aS'fluid'
p5937
aS'electro music'
p5938
aS'fighting sounds'
p5939
aS'plastic cup'
p5940
aS'film countdown'
p5941
aS'political'
p5942
aS'footsteps echo'
p5943
aS'reversed'
p5944
aS'angry woman'
p5945
aS'prize'
p5946
aS'boats'
p5947
aS'percussion loops'
p5948
aS'car keys'
p5949
aS'open hat'
p5950
aS'activation'
p5951
aS'office ambiance'
p5952
aS'alien scream'
p5953
aS'purring'
p5954
aS'4_tone_chime_down'
p5955
aS'peeling'
p5956
aS'air blow'
p5957
aS'pulsing'
p5958
aS'noooo'
p5959
aS'sh'
p5960
aS'reception'
p5961
aS'inspire'
p5962
aS'sos'
p5963
aS'rnb'
p5964
aS'menu button'
p5965
aS'space loop'
p5966
aS'pants'
p5967
aS'metal riff'
p5968
aS'thunder crack'
p5969
aS'paper rustling'
p5970
aS'moaning '
p5971
aS'toc'
p5972
aS'open '
p5973
aS'vintage car'
p5974
aS'seat'
p5975
aS'audience cheer'
p5976
aS'suspenso'
p5977
aS'carton'
p5978
aS'shortwave'
p5979
aS'bike horn'
p5980
aS'thug life'
p5981
aS'blah blah'
p5982
aS'tibetan bowl'
p5983
aS'breathing female'
p5984
aS'creepy whisper'
p5985
aS'art'
p5986
aS'dj sound'
p5987
aS'flourish'
p5988
aS'dam'
p5989
aS'gunshot '
p5990
aS'c minor'
p5991
aS'hamster'
p5992
aS'come'
p5993
aS'falls'
p5994
aS'engine revving'
p5995
aS'fall water'
p5996
aS'children scream'
p5997
aS'hitmarker'
p5998
aS'cricket '
p5999
aS'flying bird'
p6000
aS'crowd outside'
p6001
aS'gun hit'
p6002
aS'electronic sound'
p6003
aS'remote'
p6004
aS'80 bpm'
p6005
aS'epic drums'
p6006
aS'scared scream'
p6007
aS'access denied'
p6008
aS'keypad'
p6009
aS'pretty'
p6010
aS'london underground'
p6011
aS'rocket engine'
p6012
aS'melodie'
p6013
aS'ocean storm'
p6014
aS'man walking'
p6015
aS'car honking'
p6016
aS'mobile ringtone'
p6017
aS'bel'
p6018
aS'jump cartoon'
p6019
aS'arc'
p6020
aS'money counter'
p6021
aS'break '
p6022
aS'mouse '
p6023
aS'war scream'
p6024
aS'security'
p6025
aS'video game '
p6026
aS'spot'
p6027
aS'wind whoosh'
p6028
aS'synth '
p6029
aS'woman pain'
p6030
aS'suspenseful'
p6031
aS'voice female'
p6032
aS'sea wind'
p6033
aS'train track'
p6034
aS'tik'
p6035
aS'washing dishes'
p6036
aS'swat'
p6037
aS'typewriter bell'
p6038
aS'smashing glass'
p6039
aS'weeping'
p6040
aS'time passing'
p6041
aS'writing pen'
p6042
aS'ambient pad'
p6043
aS'fx '
p6044
aS'wind window'
p6045
aS'crowd stadium'
p6046
aS'game song'
p6047
aS'woman sigh'
p6048
aS'cymbol'
p6049
aS'gardening'
p6050
aS'dancehall'
p6051
aS'gentle breeze'
p6052
aS'cog'
p6053
aS'hehe'
p6054
aS'chimney'
p6055
aS'hello?'
p6056
aS'marching drum'
p6057
aS'exterior'
p6058
aS'iphone typing'
p6059
aS'follow'
p6060
aS'police sirene'
p6061
aS'exhausted'
p6062
aS'peaceful music'
p6063
aS'fast breath'
p6064
aS'radio broadcast'
p6065
aS'horse trot'
p6066
aS'radio talk'
p6067
aS'human sounds'
p6068
aS'people yelling'
p6069
aS'female laughter'
p6070
aS'revolution'
p6071
aS'bar noise'
p6072
aS'phone alert'
p6073
aS'cars '
p6074
aS'rock crash'
p6075
aS'bend'
p6076
aS'ole'
p6077
aS'baking'
p6078
aS'plank'
p6079
aS'balloon burst'
p6080
aS'police station'
p6081
aS'carnaval'
p6082
aS'rock impact'
p6083
aS'big boom'
p6084
aS'rocky'
p6085
aS'brush teeth'
p6086
aS'rural'
p6087
aS'waving'
p6088
aS'shrink'
p6089
aS'what the'
p6090
aS'shamisen'
p6091
aS'furnace'
p6092
aS'thuds'
p6093
aS'game click'
p6094
aS'crowd chant'
p6095
aS'guitar slide'
p6096
aS'd'
aS'forest ambiance'
p6097
aS'deep breathing'
p6098
aS'new york street'
p6099
aS'electric current'
p6100
aS'jewelry'
p6101
aS'electric engine'
p6102
aS'la'
p6103
aS'channel'
p6104
aS'intro sounds'
p6105
aS'eggs'
p6106
aS'letters'
p6107
aS'cute music'
p6108
aS'italian music'
p6109
aS'eastern'
p6110
aS'light hum'
p6111
aS'elk'
p6112
aS'loud crash'
p6113
aS'cellar'
p6114
aS'money '
p6115
aS'cocaine'
p6116
aS'needle drop'
p6117
aS'discovery'
p6118
aS'nigga'
p6119
aS'wheel spin'
p6120
aS'polish'
p6121
aS'amp'
p6122
aS'torpedo'
p6123
aS'pouring liquid'
p6124
aS'virus'
p6125
aS'piano hit'
p6126
aS'tremble'
p6127
aS'funk guitar'
p6128
aS'television '
p6129
aS'female speech'
p6130
aS'game death'
p6131
aS'grip'
p6132
aS'heli'
p6133
aS'hip hop kick'
p6134
aS'hospital ambience'
p6135
aS'house loop'
p6136
aS'squeaking door'
p6137
aS'grass steps'
p6138
aS'sweep up'
p6139
aS'faint'
p6140
aS'talk show'
p6141
aS'horse riding'
p6142
aS'sleepy'
p6143
aS'forest walk'
p6144
aS'static tv'
p6145
aS'alerts'
p6146
aS'dog steps'
p6147
aS'steps stone'
p6148
aS'lightswitch'
p6149
aS'dragon fire'
p6150
aS'key car'
p6151
aS'connected'
p6152
aS'key lock'
p6153
aS'water step'
p6154
aS'ipad'
p6155
aS'wind through trees'
p6156
aS'long scream'
p6157
aS'um'
p6158
aS'kids cheer'
p6159
aS'vinyl sound'
p6160
aS'kids running'
p6161
aS'world war 2'
p6162
aS'match strike'
p6163
aS'tron'
p6164
aS'message sound'
p6165
aS'bed '
p6166
aS'ladies and gentlemen'
p6167
aS'begging'
p6168
aS'pink'
p6169
aS'blinking'
p6170
aS'pool water'
p6171
aS'cat screech'
p6172
aS'order'
p6173
aS'rummaging'
p6174
aS'paper tear'
p6175
aS'stadium cheer'
p6176
aS'party people'
p6177
aS'siri'
p6178
aS'rain car'
p6179
aS'frustrated'
p6180
aS'caw'
p6181
aS'oof'
p6182
aS'falling objects'
p6183
aS'piano pack'
p6184
aS'fast piano'
p6185
aS'machine sound'
p6186
aS'go go go'
p6187
aS'mosque'
p6188
aS'falling rock'
p6189
aS'magical sound'
p6190
aS'flip page'
p6191
aS'male sigh'
p6192
aS'factory '
p6193
aS'man talk'
p6194
aS'heel'
p6195
aS'men laughing'
p6196
aS'hotel bell'
p6197
aS'morning '
p6198
aS'fire gun'
p6199
aS'night ambiance'
p6200
aS'ear ring'
p6201
aS'wind woosh'
p6202
aS'door car'
p6203
aS'walking sound'
p6204
aS'earth quake'
p6205
aS'washing machine '
p6206
aS'children running'
p6207
aS'water plop'
p6208
aS'cricket sound'
p6209
aS'typewritter'
p6210
aS'clothes rustling'
p6211
aS'vento'
p6212
aS'deep impact'
p6213
aS'wood step'
p6214
aS'descending'
p6215
aS'whisk'
p6216
aS'disco music'
p6217
aS'tremor'
p6218
aS'distorted guitar'
p6219
aS'tarzan'
p6220
aS'backfire'
p6221
aS'dog sniffing'
p6222
aS'slingshot'
p6223
aS'backround'
p6224
aS'8bit '
p6225
aS'suffering'
p6226
aS'barking dogs'
p6227
aS'ambient house'
p6228
aS'suspension'
p6229
aS'beetle'
p6230
aS'access granted'
p6231
aS'tank engine'
p6232
aS'blast off'
p6233
aS'snaps'
p6234
aS'broken wood'
p6235
aS'thumb'
p6236
aS'loud thunder'
p6237
aS'pistol reload'
p6238
aS'metal on metal'
p6239
aS'pink panther'
p6240
aS'low boom'
p6241
aS'radio show'
p6242
aS'killing'
p6243
aS'rising sound'
p6244
aS'melodies'
p6245
aS'radio click'
p6246
aS'mechanical '
p6247
aS'orient'
p6248
aS'motor start'
p6249
aS'river '
p6250
aS'fire place'
p6251
aS'rock snare'
p6252
aS'harmonium'
p6253
aS'paper rustle'
p6254
aS'film intro'
p6255
aS'school yard'
p6256
aS'freezer'
p6257
aS'quiet ambience'
p6258
aS'girl talk'
p6259
aS'runner'
p6260
aS'glass breaks'
p6261
aS'religious'
p6262
aS'grave'
p6263
aS'ringing bell'
p6264
aS'gregorian chant'
p6265
aS'rockslide'
p6266
aS'hammer hit'
p6267
aS'breath woman'
p6268
aS'wound'
p6269
aS'happy people'
p6270
aS'bike '
p6271
aS'x files'
p6272
aS'heavy footstep'
p6273
aS'big'
p6274
aS'ululate'
p6275
aS'footsteps water'
p6276
aS'blues guitar'
p6277
aS'violin horror'
p6278
aS'dessert'
p6279
aS'bored'
p6280
aS'walking pavement'
p6281
aS'electric sparks'
p6282
aS'botton'
p6283
aS'jump game'
p6284
aS'speech '
p6285
aS'ships bell'
p6286
aS'summer music'
p6287
aS'toc toc'
p6288
aS'scream pain'
p6289
aS'strain'
p6290
aS'shave'
p6291
aS'short scream'
p6292
aS'depression'
p6293
aS'tire '
p6294
aS'current'
p6295
aS'shattering glass'
p6296
aS'cola'
p6297
aS'small room'
p6298
aS'disc scratch'
p6299
aS'scrolling'
p6300
aS'city streets'
p6301
aS'ticket'
p6302
aS'chello'
p6303
aS'light traffic'
p6304
aS'party popper'
p6305
aS'chinese gong'
p6306
aS'like'
p6307
aS'pop corn'
p6308
aS'girl breathing'
p6309
aS'loading gun'
p6310
aS'raptor'
p6311
aS'flash back'
p6312
aS'melt'
p6313
aS'reverse bass'
p6314
aS'gun battle'
p6315
aS'marketplace'
p6316
aS'reload gun'
p6317
aS'fart sounds'
p6318
aS'intro game'
p6319
aS'phase'
p6320
aS'horro'
p6321
aS'naturaleza'
p6322
aS'paper rip'
p6323
aS'neck'
p6324
aS'bed sheet'
p6325
aS'android'
p6326
aS'beyonce'
p6327
aS'acoustic bass'
p6328
aS'calculator'
p6329
aS'cat sound'
p6330
aS'ship engine'
p6331
aS'bang door'
p6332
aS'spaghetti'
p6333
aS'cartoon blink'
p6334
aS'suburbs'
p6335
aS'buffalo'
p6336
aS'small group'
p6337
aS'alien spaceship'
p6338
aS'firing'
p6339
aS'synth hit'
p6340
aS'creaking floor'
p6341
aS'garbage truck'
p6342
aS'tears'
p6343
aS'crinkle'
p6344
aS'gay sex'
p6345
aS'shadow'
p6346
aS'desk bell'
p6347
aS'hairdryer'
p6348
aS'chicken '
p6349
aS'hand slap'
p6350
aS'drum stick'
p6351
aS'female crying'
p6352
aS'engine starting'
p6353
aS'icecream'
p6354
aS'impact wood'
p6355
aS'powerdown'
p6356
aS'metal steps'
p6357
aS'recording'
p6358
aS'mystery music'
p6359
aS'running sand'
p6360
aS'laugh man'
p6361
aS'save'
p6362
aS'train wheels'
p6363
aS'schritte'
p6364
aS'uhh'
p6365
aS'propeller plane'
p6366
aS'tram bell'
p6367
aS'pen click'
p6368
aS'tv program'
p6369
aS'robot talk'
p6370
aS'rome'
p6371
aS'old school'
p6372
aS'scary wind'
p6373
aS'waterdrops'
p6374
aS'powering up'
p6375
aS'vase'
p6376
aS'rummage'
p6377
aS'wood door open'
p6378
aS'sailboat'
p6379
aS'turbulence'
p6380
aS'one two three'
p6381
aS'balloon '
p6382
aS'scratch record'
p6383
aS'running gravel'
p6384
aS'banging door'
p6385
aS'soprano'
p6386
aS'park ambient'
p6387
aS'basketball bounce'
p6388
aS'scratch dj'
p6389
aS'school hallway'
p6390
aS'catching'
p6391
aS'scratc'
p6392
aS'amazement'
p6393
aS'bells '
p6394
aS'teleporter'
p6395
aS'anchor'
p6396
aS'blowing wind'
p6397
aS'snow steps'
p6398
aS'blowtorch'
p6399
aS'lift off'
p6400
aS'body slam'
p6401
aS'jack'
p6402
aS'book '
p6403
aS'metal spring'
p6404
aS'boxing ring'
p6405
aS'ko'
p6406
aS'argentina'
p6407
aS'motor car'
p6408
aS'chisel'
p6409
aS'gas mask'
p6410
aS'creaky'
p6411
aS'glue'
p6412
aS'dude'
p6413
aS'flash bulb'
p6414
aS'e'
aS'glass on table'
p6415
aS'ear'
p6416
aS'floor creak'
p6417
aS'door smash'
p6418
aS'guitar amp'
p6419
aS'drum machine'
p6420
aS'hihats'
p6421
aS'challenge'
p6422
aS'house party'
p6423
aS'chinese '
p6424
aS'exercise'
p6425
aS'cine'
p6426
aS'herd'
p6427
aS'doves'
p6428
aS'holy shit'
p6429
aS'elevator open'
p6430
aS'fast walking'
p6431
aS'city birds'
p6432
aS'fast walk'
p6433
aS'comercial'
p6434
aS'field ambience'
p6435
aS'clap '
p6436
aS'hang up phone'
p6437
aS'drama music'
p6438
aS'happy crowd'
p6439
aS'drumloop'
p6440
aS'hummingbird'
p6441
aS'chimpanzee'
p6442
aS'hunting horn'
p6443
aS'connection'
p6444
aS'wood squeak'
p6445
aS'swallows'
p6446
aS'ravens'
p6447
aS'tom drum'
p6448
aS'revelation'
p6449
aS'steam train whistle'
p6450
aS'running wood'
p6451
aS'stepping'
p6452
aS'priest'
p6453
aS'smoke alarm'
p6454
aS'phone bell'
p6455
aS'sneak'
p6456
aS'robot sound'
p6457
aS'sea sounds'
p6458
aS'office background'
p6459
aS'leaves '
p6460
aS'benny hill'
p6461
aS'jet '
p6462
aS'billiards'
p6463
aS'kid cry'
p6464
aS'book pages'
p6465
aS'inferno'
p6466
aS'brake car'
p6467
aS'melody '
p6468
aS'car crashing'
p6469
aS'metal ring'
p6470
aS'car noise'
p6471
aS'marina'
p6472
aS'music track'
p6473
aS'nature birds'
p6474
aS'fire loop'
p6475
aS'lesbian'
p6476
aS'flag wind'
p6477
aS'loop '
p6478
aS'hit glass'
p6479
aS'no!'
p6480
aS'ground hit'
p6481
aS'martial arts'
p6482
aS'face pounch'
p6483
aS'middle eastern'
p6484
aS'warble'
p6485
aS'bacon'
p6486
aS'neighbours'
p6487
aS'truck backing up'
p6488
aS'breaking door'
p6489
aS'new york subway'
p6490
aS'western '
p6491
aS'bicycles'
p6492
aS'closed door'
p6493
aS'whitenoise'
p6494
aS'blow job'
p6495
aS'devil laugh'
p6496
aS'tree creak'
p6497
aS'boom kick'
p6498
aS'donk'
p6499
aS'violin loop'
p6500
aS'break door'
p6501
aS'eagle '
p6502
aS'vocals '
p6503
aS'camera focus'
p6504
aS'comic sounds'
p6505
aS'wald'
p6506
aS'car key'
p6507
aS'drive away'
p6508
aS'outtake'
p6509
aS'dry'
p6510
aS'rubber stretch'
p6511
aS'dslr'
p6512
aS'pedal'
p6513
aS'dub siren'
p6514
aS'person'
p6515
aS'church '
p6516
aS'rihanna'
p6517
aS'classic guitar'
p6518
aS'rock drum'
p6519
aS'airplane cabin'
p6520
aS'paper crumple'
p6521
aS'suicide'
p6522
aS'sheeps'
p6523
aS'sex sounds '
p6524
aS'storms'
p6525
aS'old telephone ring'
p6526
aS'tie fighter'
p6527
aS'orgasms'
p6528
aS'slender'
p6529
aS'paradise'
p6530
aS'slow woosh'
p6531
aS'freesound'
p6532
aS'typewrite'
p6533
aS'screeching tires'
p6534
aS'gargle'
p6535
aS'trap bass'
p6536
aS'snow falling'
p6537
aS'gas leak'
p6538
aS'train pass'
p6539
aS'throw '
p6540
aS'gloves'
p6541
aS'walking outside'
p6542
aS'in'
p6543
aS'happy background music'
p6544
aS'up beat'
p6545
aS'low voice'
p6546
aS'history'
p6547
aS'tv turn on'
p6548
aS'machete'
p6549
aS'ice hockey'
p6550
aS'male gasp'
p6551
aS'gravel road'
p6552
aS'metal hammer'
p6553
aS'gun loading'
p6554
aS'laser explosion'
p6555
aS'farm '
p6556
aS'ambient street'
p6557
aS'heavy step'
p6558
aS'announcements'
p6559
aS'chest open'
p6560
aS'casio'
p6561
aS'chan'
p6562
aS'carrot'
p6563
aS'cell phone ringtone'
p6564
aS'blow torch'
p6565
aS'detonation'
p6566
aS'bowling strike'
p6567
aS'checkpoint'
p6568
aS'building site'
p6569
aS'deep hit'
p6570
aS'disaster'
p6571
aS'combo'
p6572
aS'chair squeak'
p6573
aS'background talking'
p6574
aS'creak door'
p6575
aS'baseball '
p6576
aS'crowd murmur'
p6577
aS'car unlock'
p6578
aS'dramatic drums'
p6579
aS'appearing'
p6580
aS'dark drone'
p6581
aS'battle sounds'
p6582
aS'digeridoo'
p6583
aS'briefcase'
p6584
aS'cityscape'
p6585
aS'cabasa'
p6586
aS'distort'
p6587
aS'calm ocean'
p6588
aS'crying child'
p6589
aS'out of breath'
p6590
aS'typing sound'
p6591
aS'doorknob'
p6592
aS'portugal'
p6593
aS'whale song'
p6594
aS'down stairs'
p6595
aS'pouring '
p6596
aS'wrong sound'
p6597
aS'churchbell'
p6598
aS'rap vocal'
p6599
aS'wind field'
p6600
aS'cop'
p6601
aS'ring '
p6602
aS'wood footsteps'
p6603
aS'slow walking'
p6604
aS'scoop'
p6605
aS'swip'
p6606
aS'scared crowd'
p6607
aS'thunder and lightning'
p6608
aS'print'
p6609
aS'hack'
p6610
aS'phone talk'
p6611
aS'field recordings'
p6612
aS'pick up coin'
p6613
aS'grenade launcher'
p6614
aS'metal boom'
p6615
aS'guitar noise'
p6616
aS'mailbox'
p6617
aS'heavy object'
p6618
aS'india music'
p6619
aS'horror voice'
p6620
aS'mario '
p6621
aS'horse racing'
p6622
aS'infrasound'
p6623
aS'female giggle'
p6624
aS'jungle birds'
p6625
aS'forest music'
p6626
aS'air release'
p6627
aS'expand'
p6628
aS'alarm siren'
p6629
aS'fusion'
p6630
aS'ambient melody'
p6631
aS'girl sex'
p6632
aS'aaah'
p6633
aS'grate'
p6634
aS'car bump'
p6635
aS'wardrobe'
p6636
aS'grumpy'
p6637
aS'bicycle wheel'
p6638
aS'transporter'
p6639
aS'honking'
p6640
aS'bear '
p6641
aS'wine bottle'
p6642
aS'eye of the tiger'
p6643
aS'billiard'
p6644
aS'wind swoosh'
p6645
aS'fall cartoon'
p6646
aS'belly'
p6647
aS'creepy violin'
p6648
aS'flying '
p6649
aS'bunker'
p6650
aS'crickets chirping'
p6651
aS'footstep sand'
p6652
aS'carnival music'
p6653
aS'crowd reaction'
p6654
aS'cave water'
p6655
aS'dog sniff'
p6656
aS'increasing'
p6657
aS'door open and close'
p6658
aS'kick bass'
p6659
aS'drop wood'
p6660
aS'jets'
p6661
aS'cheering '
p6662
aS'mercedes'
p6663
aS'drummer'
p6664
aS'mosquitoes'
p6665
aS'elevator doors'
p6666
aS'neck crack'
p6667
aS'sweeps'
p6668
aS'plasma gun'
p6669
aS'snowboard'
p6670
aS'restaurant music'
p6671
aS'soccer stadium'
p6672
aS'sauce'
p6673
aS'quick steps'
p6674
aS'wood thud'
p6675
aS'playing'
p6676
aS'tragedy'
p6677
aS'potato'
p6678
aS'tooth'
p6679
aS'rubber ball'
p6680
aS'villain'
p6681
aS'racing cars'
p6682
aS'whisle'
p6683
aS'people party'
p6684
aS'trance kick'
p6685
aS'rain inside'
p6686
aS'sweden'
p6687
aS'fish '
p6688
aS'rewind '
p6689
aS'slow breath'
p6690
aS'fanfares'
p6691
aS'phone answer'
p6692
aS'suddenly'
p6693
aS'getting up'
p6694
aS'phone buzz'
p6695
aS'screaming woman'
p6696
aS'geyser'
p6697
aS'oh god'
p6698
aS'texas'
p6699
aS'grass step'
p6700
aS'rock drums'
p6701
aS'fighting music'
p6702
aS'phone typing'
p6703
aS'gun shooting'
p6704
aS'old house'
p6705
aS'male yell'
p6706
aS'old countdown'
p6707
aS'necklace'
p6708
aS'bassdrop'
p6709
aS'low drum'
p6710
aS'bat hit'
p6711
aS'man fall'
p6712
aS'bell school'
p6713
aS'knife slice'
p6714
aS' beat'
p6715
aS'knives'
p6716
aS'aplaus'
p6717
aS'manifestation'
p6718
aS'blah blah blah'
p6719
aS'mixing'
p6720
aS'animal sound'
p6721
aS'monkey '
p6722
aS'book close'
p6723
aS'crowd roar'
p6724
aS'booster'
p6725
aS'emp'
p6726
aS'arm'
p6727
aS'circus '
p6728
aS'bush rustle'
p6729
aS'deep ocean'
p6730
aS'calming'
p6731
aS'cheerful music'
p6732
aS'anime voice'
p6733
aS'droid'
p6734
aS'drum sticks'
p6735
aS'construct'
p6736
aS'shoot gun'
p6737
aS'doubt'
p6738
aS'suburban'
p6739
aS'epic drum'
p6740
aS'switch '
p6741
aS'come here'
p6742
aS'typing phone'
p6743
aS'bass synth'
p6744
aS'complain'
p6745
aS'valley'
p6746
aS'cars honking'
p6747
aS'children music'
p6748
aS'wind effect'
p6749
aS'caribbean'
p6750
aS'champion'
p6751
aS'wind strong'
p6752
aS'car park'
p6753
aS'child '
p6754
aS'wooden chair'
p6755
aS'140bpm'
p6756
aS'walking snow'
p6757
aS'absorb'
p6758
aS'lock door'
p6759
aS'1up'
p6760
aS'injection'
p6761
aS'gangsta'
p6762
aS"jew's harp"
p6763
aS'go!'
p6764
aS'monster eating'
p6765
aS'ice skate'
p6766
aS'lachen'
p6767
aS'face'
p6768
aS'morning ambience'
p6769
aS'hand drum'
p6770
aS'jam'
p6771
aS'happy intro'
p6772
aS'playstation'
p6773
aS'footsteps street'
p6774
aS'plunge'
p6775
aS'pony'
p6776
aS'samsung'
p6777
aS'rain outside'
p6778
aS'round 1'
p6779
aS'office sound'
p6780
aS'running breath'
p6781
aS'scene'
p6782
aS'space battle'
p6783
aS'ping pong ball'
p6784
aS'squeak door'
p6785
aS'rap beats'
p6786
aS'sream'
p6787
aS'pull up'
p6788
aS'toing'
p6789
aS'obama'
p6790
aS'sketch'
p6791
aS'resonance'
p6792
aS'steps sand'
p6793
aS'rock smash'
p6794
aS'students'
p6795
aS'room atmosphere'
p6796
aS'silent film'
p6797
aS'piano jazz'
p6798
aS'short explosion'
p6799
aS'olympics'
p6800
aS'frog sound'
p6801
aS'distant'
p6802
aS'background music game'
p6803
aS'fishing rod'
p6804
aS'crying man'
p6805
aS'bee buzzing'
p6806
aS'festival crowd'
p6807
aS'coast'
p6808
aS'big wave'
p6809
aS'explose'
p6810
aS'digital clock'
p6811
aS'biking'
p6812
aS'coin fall'
p6813
aS'birds morning'
p6814
aS'correct sound'
p6815
aS'keyboard sound'
p6816
aS'english'
p6817
aS'little bell'
p6818
aS' water'
p6819
aS'lo fi'
p6820
aS'zombie attack'
p6821
aS'muffle'
p6822
aS'woman shout'
p6823
aS'kiss '
p6824
aS'wood scrape'
p6825
aS'kitty'
p6826
aS'jacobs ladder'
p6827
aS' intro'
p6828
aS'female pain'
p6829
aS'kickdrum'
p6830
aS'game explosion'
p6831
aS'lottery'
p6832
aS'hola'
p6833
aS'multimedia'
p6834
aS'fan '
p6835
aS'nokia ringtone'
p6836
aS'fighting '
p6837
aS'iphone notification'
p6838
aS'fight scene'
p6839
aS'metal box'
p6840
aS'folk guitar'
p6841
aS'jump land'
p6842
aS'hip hop snare'
p6843
aS'jungle ambience'
p6844
aS'teapot'
p6845
aS'water movement'
p6846
aS'instrumental hip hop'
p6847
aS'small party'
p6848
aS'water wave'
p6849
aS'pop song'
p6850
aS'snake '
p6851
aS'tripping'
p6852
aS'rapping'
p6853
aS'snowball'
p6854
aS'trailer boom'
p6855
aS'robot beep'
p6856
aS'throwing up'
p6857
aS'user interface'
p6858
aS'open car door'
p6859
aS'walking inside'
p6860
aS'open hi hat'
p6861
aS'walking fast'
p6862
aS'reverb snare'
p6863
aS'clock chimes'
p6864
aS'phone calling'
p6865
aS'dupstep'
p6866
aS'phone sound'
p6867
aS'dance loop'
p6868
aS'sand falling'
p6869
aS'city cars'
p6870
aS'bang '
p6871
aS'director'
p6872
aS'banshee'
p6873
aS'concert applause'
p6874
aS'bing bong'
p6875
aS'electric crackle'
p6876
aS'animal breath'
p6877
aS'emergency room'
p6878
aS'bird whistle'
p6879
aS'ahhhh'
p6880
aS'bird tweet'
p6881
aS'bubble '
p6882
aS'car approaching'
p6883
aS'car impact'
p6884
aS'car on the way'
p6885
aS'sound track'
p6886
aS'asylum'
p6887
aS'spike'
p6888
aS'bass impact'
p6889
aS'street car'
p6890
aS'blowing '
p6891
aS'sport crowd'
p6892
aS'bomb fall'
p6893
aS'sighs'
p6894
aS'bow arrow'
p6895
aS'stone falling'
p6896
aS'brass hit'
p6897
aS'text tone'
p6898
aS'anal'
p6899
aS'having sex'
p6900
aS'tesla coil'
p6901
aS'air cut'
p6902
aS'hole'
p6903
aS'time bomb'
p6904
aS'interruption'
p6905
aS'flamingo'
p6906
aS'logo intro'
p6907
aS'flat line'
p6908
aS'medieval war'
p6909
aS'fantastic'
p6910
aS'man pain'
p6911
aS'farm animals'
p6912
aS'impact sound'
p6913
aS'hammer '
p6914
aS'moscow'
p6915
aS'halleluja'
p6916
aS'moving chair'
p6917
aS'hospital machine'
p6918
aS'music box '
p6919
aS'crowd shouting'
p6920
aS'neon sign'
p6921
aS'cellphone ringing'
p6922
aS'night cricket'
p6923
aS'dot'
p6924
aS'laugh crowd'
p6925
aS'drum snare'
p6926
aS'wife'
p6927
aS'drumstick'
p6928
aS'yacht'
p6929
aS'ending music'
p6930
aS'zoom '
p6931
aS'plane flying'
p6932
aS'upbeat '
p6933
aS'pumping'
p6934
aS'top'
p6935
aS'savanna'
p6936
aS'owl '
p6937
aS'perfume'
p6938
aS'schoolyard'
p6939
aS'water sounds'
p6940
aS'pole'
p6941
aS'tyre screech'
p6942
aS'pots and pans'
p6943
aS'ui button'
p6944
aS'record crackle'
p6945
aS'turning pages'
p6946
aS'rainy'
p6947
aS'trainstation'
p6948
aS'rolling stone'
p6949
aS'world war'
p6950
aS'run forest'
p6951
aS'basketball swish'
p6952
aS'squishing'
p6953
aS'picnic'
p6954
aS'car road'
p6955
aS'tiger growl'
p6956
aS'pig '
p6957
aS'battle sound'
p6958
aS'shivering'
p6959
aS'broken bone'
p6960
aS'tape '
p6961
aS'bumblebee'
p6962
aS'snow footsteps'
p6963
aS'broken tv'
p6964
aS'tibetan bells'
p6965
aS'crowd shout'
p6966
aS'flame ignition'
p6967
aS'digital sound'
p6968
aS'happy children'
p6969
aS'clown laugh'
p6970
aS'ghost sound'
p6971
aS'day'
p6972
aS'felix blume'
p6973
aS'coffee maker'
p6974
aS'hulk'
p6975
aS'electricity '
p6976
aS'human whistle'
p6977
aS'jazz beat'
p6978
aS'iphone sound'
p6979
aS'memes'
p6980
aS'journey'
p6981
aS'infographic'
p6982
aS'intro jingle'
p6983
aS'japan music'
p6984
aS'get out'
p6985
aS'iphone alarm'
p6986
aS'guitar song'
p6987
aS'low wind'
p6988
aS'fm'
p6989
aS'lp noise'
p6990
aS'park sounds'
p6991
aS'water boat'
p6992
aS'jingle radio'
p6993
aS's'
aS'wedding '
p6994
aS'melee'
p6995
aS'school ambience'
p6996
aS'wrap'
p6997
aS'mental'
p6998
aS'printing press'
p6999
aS'xylophone '
p7000
aS'metal floor'
p7001
aS'radio search'
p7002
aS'yey'
p7003
aS'jamaican'
p7004
aS'rocket loop'
p7005
aS'woman steps'
p7006
aS'islamic'
p7007
aS'rooftop'
p7008
aS'toucan'
p7009
aS'120 bpm '
p7010
aS'cracker'
p7011
aS'air condition'
p7012
aS'cracking ice'
p7013
aS'bass riff'
p7014
aS'dull'
p7015
aS'bateria'
p7016
aS'electronic sounds'
p7017
aS'bible'
p7018
aS'driving '
p7019
aS'casual'
p7020
aS'shaker loop'
p7021
aS'stomach growling'
p7022
aS'slapstick'
p7023
aS'set down'
p7024
aS'smooch'
p7025
aS'short sounds'
p7026
aS'short sound'
p7027
aS'teenagers'
p7028
aS' thunder'
p7029
aS'puppy bark'
p7030
aS'slider'
p7031
aS'rodent'
p7032
aS'star war'
p7033
aS'radio signal'
p7034
aS'suspenseful music'
p7035
aS'pajaros'
p7036
aS'synth note'
p7037
aS'phone busy'
p7038
aS'sneaking'
p7039
aS'frog croak'
p7040
aS'bas'
p7041
aS'light breeze'
p7042
aS'fish tank'
p7043
aS'baseball crowd'
p7044
aS'indigenous'
p7045
aS'glass window'
p7046
aS'cartoon car'
p7047
aS'industrial loop'
p7048
aS'going up'
p7049
aS'breaker'
p7050
aS'i phone'
p7051
aS'glass clinking'
p7052
aS'apple bite'
p7053
aS'money machine'
p7054
aS'flipping pages'
p7055
aS'boot up'
p7056
aS'inhale exhale'
p7057
aS'grass footstep'
p7058
aS'black metal'
p7059
aS'ni\xc3\xb1os'
p7060
aS'feedback guitar'
p7061
aS'canoe'
p7062
aS'hammer wood'
p7063
aS'country ambience'
p7064
aS'footsteps hall'
p7065
aS'd minor'
p7066
aS'humming bird'
p7067
aS'eating chips'
p7068
aS'worried'
p7069
aS'disgusting'
p7070
aS'wwe'
p7071
aS'colombia'
p7072
aS'train crash'
p7073
aS'chicks'
p7074
aS'twig'
p7075
aS'censor bleep'
p7076
aS'aaa'
p7077
aS'cemetery'
p7078
aS'8-bit music'
p7079
aS'chair falling'
p7080
aS'am radio'
p7081
aS'cinema projector'
p7082
aS'pikachu'
p7083
aS'lunch'
p7084
aS'children cheer'
p7085
aS'running sound'
p7086
aS'mar'
p7087
aS'space shuttle'
p7088
aS'open beer'
p7089
aS'kitchen ambient'
p7090
aS'tattoo'
p7091
aS'puch'
p7092
aS'meowing'
p7093
aS'scrubbing'
p7094
aS'phantom'
p7095
aS'montage'
p7096
aS'spooky wind'
p7097
aS'rocket ship'
p7098
aS'juice'
p7099
aS'steps running'
p7100
aS'paper fall'
p7101
aS'mouse animal'
p7102
aS'stick hit'
p7103
aS'sci fi music'
p7104
aS'subwoofer'
p7105
aS'watching tv'
p7106
aS'shoots'
p7107
aS'wheel chair'
p7108
aS'shopping mall'
p7109
aS'ya'
p7110
aS'tape deck'
p7111
aS'white'
p7112
aS'timpani roll'
p7113
aS'turn off tv'
p7114
aS'basketball net'
p7115
aS'vocal pack'
p7116
aS'car crush'
p7117
aS'unicorn'
p7118
aS'bones cracking'
p7119
aS'frightened'
p7120
aS'caf\xc3\xa9'
p7121
aS'fuck '
p7122
aS'exciting music'
p7123
aS'game over '
p7124
aS'fast running'
p7125
aS'huge explosion'
p7126
aS'glitch '
p7127
aS'grass walk'
p7128
aS'group walking'
p7129
aS'flying drone'
p7130
aS'fairy '
p7131
aS'hitting wood'
p7132
aS'interlude'
p7133
aS'girl gasp'
p7134
aS'kettle boiling'
p7135
aS'filling'
p7136
aS'kids scream'
p7137
aS'feet running'
p7138
aS'message tone'
p7139
aS'formula one'
p7140
aS'metal gear solid'
p7141
aS'automatic gun'
p7142
aS'airplane takeoff'
p7143
aS'mattress'
p7144
aS'bar chimes'
p7145
aS'airport ambience'
p7146
aS'monkey scream'
p7147
aS'cartoon crash'
p7148
aS'cinematic sounds'
p7149
aS'morning bird'
p7150
aS'car highway'
p7151
aS'depressed'
p7152
aS'bla bla bla'
p7153
aS'children playground'
p7154
aS'bip '
p7155
aS'wedding march'
p7156
aS'beeb'
p7157
aS'typing machine'
p7158
aS'bird sing'
p7159
aS'weird sound'
p7160
aS'bones breaking'
p7161
aS'wet slap'
p7162
aS'calle'
p7163
aS'wind short'
p7164
aS'car driving '
p7165
aS'window crash'
p7166
aS'catholic'
p7167
aS'turning page'
p7168
aS'cat sounds'
p7169
aS'toothbrush'
p7170
aS'phew'
p7171
aS'ship '
p7172
aS'plunger'
p7173
aS'skyrim'
p7174
aS'power chord'
p7175
aS'tomb'
p7176
aS'ram'
p7177
aS'storm wind'
p7178
aS'really'
p7179
aS'sensor'
p7180
aS'sandpaper'
p7181
aS'sims'
p7182
aS'robin'
p7183
aS'tires screeching'
p7184
aS'robot step'
p7185
aS'rolling thunder'
p7186
aS'flac'
p7187
aS'quarrel'
p7188
aS'flour'
p7189
aS'radio crackle'
p7190
aS'group laughing'
p7191
aS'pages turning'
p7192
aS'hand saw'
p7193
aS'phone pickup'
p7194
aS'hit rock'
p7195
aS'room sounds'
p7196
aS'female hurt'
p7197
aS'piano sample'
p7198
aS'step metal'
p7199
aS'laugh woman'
p7200
aS'scary ambient'
p7201
aS'tiles'
p7202
aS'marathon'
p7203
aS'air sound'
p7204
aS'tinkerbell'
p7205
aS'men shouting'
p7206
aS'tinkling'
p7207
aS'metal ball'
p7208
aS'shattering'
p7209
aS'movie sound'
p7210
aS'thailand jungle'
p7211
aS'music ambient'
p7212
aS'shotgun '
p7213
aS'night wind'
p7214
aS'water park'
p7215
aS'cutting meat'
p7216
aS'wet '
p7217
aS'eco'
p7218
aS'wheat'
p7219
aS'cinematic trailer'
p7220
aS'window '
p7221
aS'c note'
p7222
aS'trucks'
p7223
aS'coffe machine'
p7224
aS'women laugh'
p7225
aS'choose'
p7226
aS'wooshes'
p7227
aS'draw sword'
p7228
aS'tree rustle'
p7229
aS'drum set'
p7230
aS'zither'
p7231
aS'egg timer'
p7232
aS'bass rumble'
p7233
aS'emergency broadcast'
p7234
aS'campus'
p7235
aS'entry'
p7236
aS'beating heart'
p7237
aS'bone crunch'
p7238
aS'bongo loop'
p7239
aS'brass '
p7240
aS'bubble wrap'
p7241
aS'call to prayer'
p7242
aS'cars passing by'
p7243
aS'crispydinner'
p7244
aS'baby talk'
p7245
aS'crikets'
p7246
aS'base drop'
p7247
aS'doh'
p7248
aS'braking car'
p7249
aS'computer noise'
p7250
aS'carpet footsteps'
p7251
aS'electrical hum'
p7252
aS'hummer'
p7253
aS'smg'
p7254
aS'eject'
p7255
aS'hunt'
p7256
aS'shuriken'
p7257
aS'elephant '
p7258
aS'giant footsteps'
p7259
aS'tomato'
p7260
aS'corsica'
p7261
aS'grass '
p7262
aS'servo motor'
p7263
aS'planes'
p7264
aS'greetings'
p7265
aS'steps forest'
p7266
aS'passing cars'
p7267
aS'footsteps on concrete'
p7268
aS'slow beat'
p7269
aS'outside noise'
p7270
aS'slow motion '
p7271
aS'pouring wine'
p7272
aS'swooshes'
p7273
aS'rust'
p7274
aS'snakes'
p7275
aS'quest'
p7276
aS'soap'
p7277
aS'red'
p7278
aS'women screaming'
p7279
aS'ring tones'
p7280
aS'trap kick'
p7281
aS'present'
p7282
aS'magic chimes'
p7283
aS'scary noise'
p7284
aS'marching drums'
p7285
aS'message alert'
p7286
aS'metal fence'
p7287
aS'car pull up'
p7288
aS'item pickup'
p7289
aS'big crash'
p7290
aS'noise sweep'
p7291
aS'body '
p7292
aS'low noise'
p7293
aS'arcade '
p7294
aS'industrial music'
p7295
aS'bottle opening'
p7296
aS'metal door close'
p7297
aS'gambling'
p7298
aS'pleasant'
p7299
aS'knock wood'
p7300
aS' glass'
p7301
aS'operation'
p7302
aS'korg electribe'
p7303
aS'florest'
p7304
aS'pencil '
p7305
aS'mobile '
p7306
aS'headphones'
p7307
aS'ocarina'
p7308
aS'mommy'
p7309
aS'finger snaps'
p7310
aS'radio tunning'
p7311
aS'jump landing'
p7312
aS'forest rain'
p7313
aS'people talking '
p7314
aS'lalala'
p7315
aS'edm kick'
p7316
aS'reverb kick'
p7317
aS'cell ring'
p7318
aS'panic crowd'
p7319
aS'cinematic sound'
p7320
aS'object drop'
p7321
aS'clothes rustle'
p7322
aS'phones'
p7323
aS'chair moving'
p7324
aS' typewriter'
p7325
aS'door metal'
p7326
aS'welder'
p7327
aS'chain rattle'
p7328
aS'whistles'
p7329
aS'engine sound'
p7330
aS'zoom h1'
p7331
aS'sex noise'
p7332
aS'trickle'
p7333
aS'store door'
p7334
aS'wild animals'
p7335
aS'tasty'
p7336
aS'win '
p7337
aS'seeds'
p7338
aS'train start'
p7339
aS'storm sea'
p7340
aS'train interior'
p7341
aS'window opening'
p7342
aS'turn signal'
p7343
aS'wrong '
p7344
aS'zombie moan'
p7345
aS'unlocking'
p7346
aS'walking water'
p7347
aS'walking gravel'
p7348
aS'black'
p7349
aS'trouble'
p7350
aS'arcade games'
p7351
aS'you suck'
p7352
aS'box drop'
p7353
aS'wondering'
p7354
aS'call center'
p7355
aS'wooden ship'
p7356
aS'snif'
p7357
aS'locking door'
p7358
aS'under the sea'
p7359
aS'shakespeare'
p7360
aS'm4a1'
p7361
aS'traffic city'
p7362
aS'spanish '
p7363
aS'man moan'
p7364
aS'fridge open'
p7365
aS'starship'
p7366
aS'noise tv'
p7367
aS'flag flapping'
p7368
aS'seals'
p7369
aS'metal footstep'
p7370
aS'gps'
p7371
aS' tension'
p7372
aS'neck snap'
p7373
aS'gift'
p7374
aS'single shot'
p7375
aS'falling water'
p7376
aS'thunders'
p7377
aS'guitar picking'
p7378
aS'clock sound'
p7379
aS'handy'
p7380
aS'crowd screams'
p7381
aS'film '
p7382
aS'dynamic'
p7383
aS'fallout'
p7384
aS'cloth '
p7385
aS'80bpm'
p7386
aS'drumbeat'
p7387
aS'airline'
p7388
aS'drum sound'
p7389
aS'ovni'
p7390
aS'dubstep growl'
p7391
aS'radio sounds'
p7392
aS'class room'
p7393
aS'ragtime'
p7394
aS'paw'
p7395
aS'raise'
p7396
aS'pew pew'
p7397
aS'phone camera'
p7398
aS'piano sound'
p7399
aS'park birds'
p7400
aS'pig oink'
p7401
aS'auditorium'
p7402
aS'organ music'
p7403
aS'bar ambiance'
p7404
aS'scared breathing'
p7405
aS'cartoon spring'
p7406
aS'crumple'
p7407
aS'light flickering'
p7408
aS'bathroom door'
p7409
aS'dressing'
p7410
aS'nitro'
p7411
aS'cars driving'
p7412
aS'cute '
p7413
aS'magician'
p7414
aS' breath'
p7415
aS'cymbal '
p7416
aS'kicking ball'
p7417
aS'boeing'
p7418
aS'city at night'
p7419
aS'mayday'
p7420
aS'bomba'
p7421
aS'dialing phone'
p7422
aS'jail cell'
p7423
aS'bottle pop'
p7424
aS'celular'
p7425
aS'metal noise'
p7426
aS'brush snare'
p7427
aS'door opening and closing'
p7428
aS'metal sheet'
p7429
aS'vietnam'
p7430
aS'coming soon'
p7431
aS'information'
p7432
aS'whirr'
p7433
aS'drag race'
p7434
aS'justin bieber'
p7435
aS'wick'
p7436
aS'drum intro'
p7437
aS'wale'
p7438
aS'congrats'
p7439
aS'airbus'
p7440
aS'dub techno'
p7441
aS'screaming girl'
p7442
aS'copyright 0'
p7443
aS'ships horn'
p7444
aS'game beep'
p7445
aS'tnt'
p7446
aS'game effects'
p7447
aS'slow clap'
p7448
aS'game sound effects'
p7449
aS'stone impact'
p7450
aS'grain'
p7451
aS'silenced gun'
p7452
aS'gentle rain'
p7453
aS'susto'
p7454
aS'girls laugh'
p7455
aS'heart rate monitor'
p7456
aS'footsteps indoor'
p7457
aS'hitting floor'
p7458
aS'horses '
p7459
aS'keys '
p7460
aS'fire start'
p7461
aS'nom nom'
p7462
aS'fuel'
p7463
aS'kids singing'
p7464
aS'gamemusic'
p7465
aS'man singing'
p7466
aS'garden ambience'
p7467
aS'indiana jones'
p7468
aS'ghost voice'
p7469
aS'merry go round'
p7470
aS'evacuation'
p7471
aS'inside'
p7472
aS'falling wood'
p7473
aS'moaning sex'
p7474
aS'evp'
p7475
aS'japanese drum'
p7476
aS'footstep run'
p7477
aS'jet flyby'
p7478
aS'horror noise'
p7479
aS'neighbors'
p7480
aS'iceberg'
p7481
aS'indians'
p7482
aS'hypnosis'
p7483
aS'spikes'
p7484
aS'oi'
p7485
aS'baseball organ'
p7486
aS'street cars'
p7487
aS'porno'
p7488
aS'beast roar'
p7489
aS'table tennis'
p7490
aS'oh my'
p7491
aS'bells church'
p7492
aS'springs'
p7493
aS'people fighting'
p7494
aS'blow up'
p7495
aS'staircase'
p7496
aS'objects'
p7497
aS'bottom'
p7498
aS'steps street'
p7499
aS'pain '
p7500
aS'car ambience'
p7501
aS'summer day'
p7502
aS'old west'
p7503
aS'arpa'
p7504
aS'sentimental'
p7505
aS'scary voices'
p7506
aS'scrap'
p7507
aS'crowd street'
p7508
aS'smelling'
p7509
aS'cutting board'
p7510
aS'short melody'
p7511
aS'danish'
p7512
aS'thunder and rain'
p7513
aS'dhol'
p7514
aS'tire skid'
p7515
aS'epic sound'
p7516
aS'warning sound'
p7517
aS'child playing'
p7518
aS'watch out'
p7519
aS'comedy '
p7520
aS'wheel '
p7521
aS' door'
p7522
aS'whinny'
p7523
aS'comic '
p7524
aS'wilderness'
p7525
aS'envelope'
p7526
aS'walking carpet'
p7527
aS'80s synth'
p7528
aS'150 bpm'
p7529
aS'anechoic'
p7530
aS'11linda'
p7531
aS'wave sounds'
p7532
aS'acoustic drum'
p7533
aS'wwii'
p7534
aS'invalid'
p7535
aS'baby cooing'
p7536
aS'zooming'
p7537
aS'iphone click'
p7538
aS'car rain'
p7539
aS'truck reverse'
p7540
aS'ink'
p7541
aS'car driving past'
p7542
aS'upstairs'
p7543
aS'iphone sounds'
p7544
aS'bubbling water'
p7545
aS'freight train'
p7546
aS'message notification'
p7547
aS'big impact'
p7548
aS'fast heart beat'
p7549
aS'metal scrap'
p7550
aS'cap'
p7551
aS'eww'
p7552
aS'miau'
p7553
aS'car engine off'
p7554
aS'fishing boat'
p7555
aS'industrial sound'
p7556
aS'ghost laugh'
p7557
aS'native flute'
p7558
aS'explosion space'
p7559
aS'laugh girl'
p7560
aS'fluttering'
p7561
aS'kangaroo'
p7562
aS'fly away'
p7563
aS'creepy music box'
p7564
aS'farm ambience'
p7565
aS'crowd party'
p7566
aS' forest'
p7567
aS'dor'
p7568
aS'puf'
p7569
aS'ecg'
p7570
aS'rugby'
p7571
aS'cinimatic'
p7572
aS'running stairs'
p7573
aS'distant music'
p7574
aS'owl night'
p7575
aS'computers'
p7576
aS'pet'
p7577
aS'engine stop'
p7578
aS'roof'
p7579
aS'speeches'
p7580
aS'photography'
p7581
aS'screaming man'
p7582
aS'running machine'
p7583
aS'swings'
p7584
aS'tadaa'
p7585
aS'tissue'
p7586
aS'startled'
p7587
aS'static electricity'
p7588
aS'slither'
p7589
aS'stun'
p7590
aS'swoosh sound'
p7591
aS'single footstep'
p7592
aS'snare reverb'
p7593
aS'snorring'
p7594
aS'selected'
p7595
aS'snow fall'
p7596
aS'passing by'
p7597
aS'slap '
p7598
aS'power switch'
p7599
aS'swich'
p7600
aS'rock and roll'
p7601
aS'spring '
p7602
aS'open bag'
p7603
aS'steps stairs'
p7604
aS'record static'
p7605
aS'sexy '
p7606
aS'rewinding'
p7607
aS'small splash'
p7608
aS'paper flying'
p7609
aS'sword fighting'
p7610
aS'watch ticking'
p7611
aS'anticipation'
p7612
aS'snail'
p7613
aS'water dive'
p7614
aS'barf'
p7615
aS'teclado'
p7616
aS'tuning fork'
p7617
aS'celebrating'
p7618
aS'snatch'
p7619
aS'whale '
p7620
aS'car trunk'
p7621
aS'scratches'
p7622
aS'udu'
p7623
aS'bed creak'
p7624
aS'threat'
p7625
aS'whistle up'
p7626
aS'big dog'
p7627
aS'thunderstorms'
p7628
aS'whistle song'
p7629
aS'blup'
p7630
aS'screwing'
p7631
aS'buckle'
p7632
aS'cross'
p7633
aS'calm waves'
p7634
aS'crowd oh'
p7635
aS'camera beep'
p7636
aS'dum'
p7637
aS'cannonball'
p7638
aS'deep '
p7639
aS'car leaving'
p7640
aS'descend'
p7641
aS'load gun'
p7642
aS'city rain'
p7643
aS'kick fight'
p7644
aS'collapsing'
p7645
aS'insert coin'
p7646
aS'dog snarl'
p7647
aS'melody loop'
p7648
aS'empty street'
p7649
aS'metallic sounds'
p7650
aS'graffiti'
p7651
aS'mouse clicking'
p7652
aS'glass bottles'
p7653
aS'motorcycles'
p7654
aS'glass falling'
p7655
aS'mower'
p7656
aS'flourescent light'
p7657
aS'news theme'
p7658
aS'ground impact'
p7659
aS'happy end'
p7660
aS'heartbeat fast'
p7661
aS'espresso'
p7662
aS'footsteps hallway'
p7663
aS'horny'
p7664
aS'horror loop'
p7665
aS'fire ignite'
p7666
aS'warning voice'
p7667
aS'fast move'
p7668
aS'water drop '
p7669
aS'fuzz'
p7670
aS'zombie group'
p7671
aS'galloping horse'
p7672
aS'whoosh transition'
p7673
aS'game score'
p7674
aS'wood blocks'
p7675
aS'hype'
p7676
aS'traffic horns'
p7677
aS'gliss'
p7678
aS'wooden steps'
p7679
aS'graphic'
p7680
aS'uncork'
p7681
aS'fight bell'
p7682
aS'tubular'
p7683
aS'group running'
p7684
aS'uplift'
p7685
aS'footstep stone'
p7686
aS'metal bending'
p7687
aS'pasta'
p7688
aS'formula'
p7689
aS'neon lamp'
p7690
aS'radio communication'
p7691
aS'adhan'
p7692
aS'record '
p7693
aS'advert'
p7694
aS'palm'
p7695
aS'cow mooing'
p7696
aS'off road'
p7697
aS'creepy wind'
p7698
aS'reverse sound'
p7699
aS'crow '
p7700
aS'revving'
p7701
aS'cumming'
p7702
aS'pans'
p7703
aS'erh'
p7704
aS'running outside'
p7705
aS'eminem'
p7706
aS'steinway piano'
p7707
aS'chicago'
p7708
aS'squeak '
p7709
aS'disgusted'
p7710
aS'starting'
p7711
aS'drag '
p7712
aS'steel door'
p7713
aS'charlie brown'
p7714
aS'strom'
p7715
aS'computer fan'
p7716
aS'sf'
p7717
aS'drumset'
p7718
aS'sinus'
p7719
aS'cello '
p7720
aS'shout '
p7721
aS'classical guitar'
p7722
aS'answer phone'
p7723
aS'electric explosion'
p7724
aS'bell toll'
p7725
aS'claws'
p7726
aS'book page'
p7727
aS'bus stopping'
p7728
aS'cave sounds'
p7729
aS'launcher'
p7730
aS'baby scream'
p7731
aS'male '
p7732
aS'car wash'
p7733
aS' love '
p7734
aS'car drifting'
p7735
aS'intense '
p7736
aS'biplane'
p7737
aS'mosquitos'
p7738
aS'blitz'
p7739
aS'music stop'
p7740
aS'bone crush'
p7741
aS'laser fire'
p7742
aS'animated'
p7743
aS'noise '
p7744
aS'brilliant'
p7745
aS'water jet'
p7746
aS'clinking'
p7747
aS'broken glasses'
p7748
aS'tyres'
p7749
aS'crowd ooh'
p7750
aS'caida'
p7751
aS'victory '
p7752
aS'door breaking'
p7753
aS'angry birds'
p7754
aS'wind bell'
p7755
aS'eagle screech'
p7756
aS'car gear'
p7757
aS'views'
p7758
aS'dark '
p7759
aS'fire woosh'
p7760
aS'tripod'
p7761
aS'digital click'
p7762
aS'girl orgasm'
p7763
aS'voice solo'
p7764
aS'color'
p7765
aS'girls screaming'
p7766
aS'unlocking door'
p7767
aS'clanking'
p7768
aS'glass drop'
p7769
aS'dramatic drum'
p7770
aS'flourescent'
p7771
aS'christian'
p7772
aS'guitar strings'
p7773
aS'concrete footsteps'
p7774
aS'fart noise'
p7775
aS'cougar'
p7776
aS'error beep'
p7777
aS'space invaders'
p7778
aS'hindu'
p7779
aS'spash'
p7780
aS'finger tapping'
p7781
aS'slides'
p7782
aS'humor'
p7783
aS'shooter'
p7784
aS'add'
p7785
aS'small fire'
p7786
aS'pistol fire'
p7787
aS'techno beat'
p7788
aS'plastic '
p7789
aS'portuguese'
p7790
aS'ropes'
p7791
aS'science lab'
p7792
aS'splashes'
p7793
aS'plane takeoff'
p7794
aS'taunt'
p7795
aS'plug in'
p7796
aS'sigh female'
p7797
aS're'
p7798
aS'street crowd'
p7799
aS'rubbing hands'
p7800
aS'summer birds'
p7801
aS'sails'
p7802
aS'silent room'
p7803
aS'punching bag'
p7804
aS'small applause'
p7805
aS'rain umbrella'
p7806
aS'tambourin'
p7807
aS'rock concert'
p7808
aS'incoming message'
p7809
aS'walk water'
p7810
aS'rock song'
p7811
aS'lough'
p7812
aS'tropical music'
p7813
aS'ruler'
p7814
aS'market place'
p7815
aS'typewriter '
p7816
aS'sailor'
p7817
aS'metal clash'
p7818
aS'transport'
p7819
aS'scary hit'
p7820
aS'knock out'
p7821
aS'wusch'
p7822
aS'bard'
p7823
aS'monologue'
p7824
aS'ww1'
p7825
aS'bathroom ambience'
p7826
aS'unplug'
p7827
aS'car horn '
p7828
aS'american'
p7829
aS'button clicks'
p7830
aS'303'
p7831
aS'birds wings'
p7832
aS'country guitar'
p7833
aS'blades'
p7834
aS'crowd sounds'
p7835
aS'bluegrass'
p7836
aS'darts'
p7837
aS'boiler'
p7838
aS'dj stop'
p7839
aS'brisk'
p7840
aS'donner'
p7841
aS'caching'
p7842
aS'demon voice'
p7843
aS'cannons'
p7844
aS'dog whistle'
p7845
aS'car loop'
p7846
aS'do re mi'
p7847
aS'car pass by'
p7848
aS'command'
p7849
aS'gta'
p7850
aS'correct '
p7851
aS'hello '
p7852
aS'empty hall'
p7853
aS'fatality'
p7854
aS'glowing'
p7855
aS'gravel '
p7856
aS'handshake'
p7857
aS'film roll'
p7858
aS'heavy machine'
p7859
aS'fell'
p7860
aS'holster'
p7861
aS'hooter'
p7862
aS'special'
p7863
aS'female talk'
p7864
aS'ships'
p7865
aS'harps'
p7866
aS'spiderman'
p7867
aS'hit face'
p7868
aS'start beep'
p7869
aS'guitar rock'
p7870
aS'slippers'
p7871
aS'fold'
p7872
aS'steps carpet'
p7873
aS'film score'
p7874
aS'stingers'
p7875
aS' horn'
p7876
aS'shaver'
p7877
aS'horses running'
p7878
aS'surreal'
p7879
aS'ice cream van'
p7880
aS'silly music'
p7881
aS'lawn'
p7882
aS'creaking door '
p7883
aS'technical difficulties'
p7884
aS'logos'
p7885
aS'creeking'
p7886
aS'techno snare'
p7887
aS'mama'
p7888
aS'duduk'
p7889
aS'pneumatic door'
p7890
aS'low hit'
p7891
aS'elefant'
p7892
aS'remember'
p7893
aS'jet sound'
p7894
aS'club crowd'
p7895
aS'renaissance'
p7896
aS'industrial machine'
p7897
aS'deez nuts'
p7898
aS'ruffle'
p7899
aS'metal bar'
p7900
aS'dbz'
p7901
aS'orchestral hit'
p7902
aS'moment'
p7903
aS'demon laugh'
p7904
aS'opening window'
p7905
aS'insult'
p7906
aS'disk scratch'
p7907
aS'jurassic park'
p7908
aS'champagne pop'
p7909
aS'atmosphere music'
p7910
aS'drop bomb'
p7911
aS'background music '
p7912
aS'confuse'
p7913
aS'car wheels'
p7914
aS'construction '
p7915
aS'car traffic'
p7916
aS'container'
p7917
aS'birds chirp'
p7918
aS'contrabass'
p7919
aS'beach sound'
p7920
aS'control room'
p7921
aS'body punch'
p7922
aS'corn'
p7923
aS'cave ambient'
p7924
aS'war ambience'
p7925
aS'acoustic drums'
p7926
aS't\xc3\xbcr'
p7927
aS'whistle football'
p7928
aS'winter ambience'
p7929
aS'woman humming'
p7930
aS'trail'
p7931
aS'tormenta'
p7932
aS'walking on sand'
p7933
aS'fire wood'
p7934
aS'playing cards'
p7935
aS'waves beach'
p7936
aS'game show buzzer'
p7937
aS'polar bear'
p7938
aS'whirlwind'
p7939
aS'fur'
p7940
aS'record_scratch_short.wav'
p7941
aS'woods night'
p7942
aS'glass toast'
p7943
aS'phone drop'
p7944
aS'train crossing'
p7945
aS'hold'
p7946
aS'rockets'
p7947
aS'twigs'
p7948
aS'fast whoosh'
p7949
aS'sand steps'
p7950
aS'space drone'
p7951
aS'fighter'
p7952
aS'spaceship door'
p7953
aS'falling floor'
p7954
aS'spaceship landing'
p7955
aS'explo'
p7956
aS'spooky sounds'
p7957
aS'female whisper'
p7958
aS'sighing'
p7959
aS'horror screams'
p7960
aS'sight'
p7961
aS'fire burn'
p7962
aS'slowing down'
p7963
aS'howler monkey'
p7964
aS'silenced'
p7965
aS'bassline loops'
p7966
aS'studio audience'
p7967
aS'car skidding'
p7968
aS'short intro'
p7969
aS'bike crash'
p7970
aS'sniffle'
p7971
aS'blooper beep'
p7972
aS'throwing '
p7973
aS'boy laughing'
p7974
aS'lighthouse'
p7975
aS'c4'
p7976
aS'lorry'
p7977
aS'carpenter'
p7978
aS'mars'
p7979
aS'cover'
p7980
aS'metal breaking'
p7981
aS'chalk board'
p7982
aS'iran'
p7983
aS'crowd footsteps'
p7984
aS'knock glass'
p7985
aS'dial phone'
p7986
aS'mass'
p7987
aS'coca cola'
p7988
aS'nice music'
p7989
aS'dragon wings'
p7990
aS'laughing baby'
p7991
aS'dragging '
p7992
aS'dracula'
p7993
aS'enjoy'
p7994
aS'ambience horror'
p7995
aS'crown'
p7996
aS'ambient night'
p7997
aS'digital glitch'
p7998
aS'pop out'
p7999
aS'loud thud'
p8000
aS'disparo'
p8001
aS'ramp'
p8002
aS'muffled scream'
p8003
aS'dream sequence'
p8004
aS'sad melody'
p8005
aS'jimimod'
p8006
aS'drinking beer'
p8007
aS'pencil drawing'
p8008
aS'marker pen'
p8009
aS'eat '
p8010
aS' punch'
p8011
aS'metal wheel'
p8012
aS'electronic noise'
p8013
aS'ogre'
p8014
aS'moan girl'
p8015
aS'cloth rustle'
p8016
aS'radio transmission'
p8017
aS'lake water'
p8018
aS'cloths'
p8019
aS'paino'
p8020
aS'type machine'
p8021
aS'darkpsy'
p8022
aS'piano a'
p8023
aS'yuck'
p8024
aS'city atmosphere'
p8025
aS'running up stairs'
p8026
aS'whoops'
p8027
aS'despair'
p8028
aS'piano mood'
p8029
aS'wildlife'
p8030
aS'distant city'
p8031
aS'piano solo'
p8032
aS'tree growing'
p8033
aS'disk'
p8034
aS'auction'
p8035
aS'dobroide'
p8036
aS'battlecry'
p8037
aS'colt'
p8038
aS'beep car'
p8039
aS'dog barks'
p8040
aS'berimbau'
p8041
aS'dragon ball z'
p8042
aS'angelic choir'
p8043
aS'character'
p8044
aS'boos'
p8045
aS'dropping '
p8046
aS'brass band'
p8047
aS'chair creak'
p8048
aS'cable car'
p8049
aS'eletricity'
p8050
aS'announce'
p8051
aS'good morning tokyo'
p8052
aS'shuttle'
p8053
aS'hens'
p8054
aS'sliding metal'
p8055
aS'flowing water'
p8056
aS'slow drums'
p8057
aS'half life'
p8058
aS'snapshot'
p8059
aS'footbal'
p8060
aS'things falling'
p8061
aS'hard snare'
p8062
aS'flappy bird'
p8063
aS'horse breath'
p8064
aS'horse snort'
p8065
aS'house '
p8066
aS'house bass'
p8067
aS'allah akbar'
p8068
aS'futbol'
p8069
aS'african '
p8070
aS'golf swing'
p8071
aS'alarm beep'
p8072
aS'gossip'
p8073
aS'plastic ball'
p8074
aS'skip'
p8075
aS'gravel footsteps'
p8076
aS'pottery'
p8077
aS'stamping'
p8078
aS'high wind'
p8079
aS'sand walk'
p8080
aS'storm '
p8081
aS'grandma'
p8082
aS'sanding'
p8083
aS'text '
p8084
aS'fight sound'
p8085
aS'saxo'
p8086
aS'timbales'
p8087
aS'happy birthday song'
p8088
aS'orange'
p8089
aS'long woosh'
p8090
aS'excuse me'
p8091
aS'opening bottle'
p8092
aS'lose game'
p8093
aS'heart sound'
p8094
aS'running dirt'
p8095
aS'mummy'
p8096
aS'f'
aS'no no'
p8097
aS' fire'
p8098
aS'man dying'
p8099
aS'factory whistle'
p8100
aS'mcdonalds'
p8101
aS'babbling'
p8102
aS'knife slash'
p8103
aS'breathing out'
p8104
aS'knuckle crack'
p8105
aS'blowing nose'
p8106
aS'iron hit'
p8107
aS'bollywood'
p8108
aS'laser sword'
p8109
aS'birds city'
p8110
aS'vacum'
p8111
aS'book open'
p8112
aS'wasted'
p8113
aS'branch breaking'
p8114
aS'tree '
p8115
aS'anime '
p8116
aS'whish'
p8117
aS'angry bird'
p8118
aS' xylophone'
p8119
aS'car door shut'
p8120
aS'victorian'
p8121
aS'car off'
p8122
aS'tragic'
p8123
aS'arrow '
p8124
aS'tree leaves'
p8125
aS'cries'
p8126
aS'zombi'
p8127
aS'dark synth'
p8128
aS'town ambience'
p8129
aS'club ambience'
p8130
aS'transition sound'
p8131
aS'c major'
p8132
aS'ding bell'
p8133
aS'coins dropping'
p8134
aS'code'
p8135
aS'dink'
p8136
aS'door crash'
p8137
aS'cement'
p8138
aS'egg '
p8139
aS'chute'
p8140
aS'ambient beat'
p8141
aS'cow bells'
p8142
aS'ambient birds'
p8143
aS'craft'
p8144
aS'ambient synth'
p8145
aS'crap'
p8146
aS'100bpm'
p8147
aS'cellular'
p8148
aS'oooo'
p8149
aS'village ambience'
p8150
aS'creepy whispers'
p8151
aS'outside '
p8152
aS'violin screech'
p8153
aS'cube'
p8154
aS'power '
p8155
aS'tv remote'
p8156
aS'erie'
p8157
aS'rasp'
p8158
aS'wake'
p8159
aS'elevator sound'
p8160
aS'ribbit'
p8161
aS'shouting '
p8162
aS'coin spin'
p8163
aS'old truck'
p8164
aS'south africa'
p8165
aS'drone flying'
p8166
aS'roaring'
p8167
aS'space alarm'
p8168
aS'drum crash'
p8169
aS'sand storm'
p8170
aS'sprint'
p8171
aS'classical piano'
p8172
aS'santa'
p8173
aS'sea lion'
p8174
aS'cool sounds'
p8175
aS'scary footsteps'
p8176
aS'strap'
p8177
aS'claves'
p8178
aS'sci'
p8179
aS'strong'
p8180
aS'electronic snare'
p8181
aS'screm'
p8182
aS'athmosphere'
p8183
aS'smacking'
p8184
aS'australian'
p8185
aS'telefono'
p8186
aS'answer machine'
p8187
aS'tighten'
p8188
aS'blackout'
p8189
aS'fuck off'
p8190
aS'birds flying away'
p8191
aS'fuck me'
p8192
aS'bomb dropping'
p8193
aS'future bass'
p8194
aS'bye bye'
p8195
aS'hallo'
p8196
aS'car exhaust'
p8197
aS'heavy guitar'
p8198
aS'car turn'
p8199
aS'hip hop drum'
p8200
aS'machine sounds'
p8201
aS'fire bell'
p8202
aS'man sigh'
p8203
aS'house fire'
p8204
aS'iron '
p8205
aS'minimize'
p8206
aS'iron gate'
p8207
aS'intro guitar'
p8208
aS'lasso'
p8209
aS'poker chips'
p8210
aS'noice'
p8211
aS'radio speech'
p8212
aS'kids yay'
p8213
aS'salad'
p8214
aS'in car'
p8215
aS'saliva'
p8216
aS'medic'
p8217
aS'progressive trance'
p8218
aS'metal grind'
p8219
aS'oh yes'
p8220
aS'mexican music'
p8221
aS'quiet city'
p8222
aS'monster hurt'
p8223
aS'quiet crowd'
p8224
aS'nature music'
p8225
aS'pages flipping'
p8226
aS'night traffic'
p8227
aS'ringing ears'
p8228
aS'gagged'
p8229
aS'321'
p8230
aS'rock crack'
p8231
aS'evil voice'
p8232
aS'17 planes'
p8233
aS'rolling rock'
p8234
aS'gates'
p8235
aS'airplain'
p8236
aS'rope creak'
p8237
aS'grilling'
p8238
aS'washer'
p8239
aS'olympic'
p8240
aS'ident'
p8241
aS'water balloon'
p8242
aS'school hall'
p8243
aS'idiot'
p8244
aS'venice'
p8245
aS'flash light'
p8246
aS'wheeze'
p8247
aS'falling scream'
p8248
aS'victory sound'
p8249
aS'evil '
p8250
aS'busy road'
p8251
aS'glass cup'
p8252
aS'birds ambience'
p8253
aS'glass squeak'
p8254
aS'big city'
p8255
aS'girl shout'
p8256
aS'bla'
p8257
aS'glove'
p8258
aS'bottle smash'
p8259
aS'fight hit'
p8260
aS'boys'
p8261
aS'fm radio'
p8262
aS' breathing'
p8263
aS' fart'
p8264
aS'car turning'
p8265
aS'houston'
p8266
aS'cast'
p8267
aS'doctor who'
p8268
aS'synthetic'
p8269
aS'dough'
p8270
aS'tambura'
p8271
aS'equipment'
p8272
aS'toon'
p8273
aS'deny'
p8274
aS'stabbed'
p8275
aS'champagne bottle'
p8276
aS'sliding '
p8277
aS'city morning'
p8278
aS'shoe squeak'
p8279
aS'checkout'
p8280
aS'subway train'
p8281
aS'computer glitch'
p8282
aS'sploosh'
p8283
aS'sword sound'
p8284
aS'tank shot'
p8285
aS'snare hit'
p8286
aS'tearing paper'
p8287
aS'shot '
p8288
aS'thriller '
p8289
aS'soft '
p8290
aS'pipe organ'
p8291
aS'spilling'
p8292
aS'pistole'
p8293
aS'tea cup'
p8294
aS'old engine'
p8295
aS'timbal'
p8296
aS'refresh'
p8297
aS'squeeky'
p8298
aS'pedo'
p8299
aS'shuffling feet'
p8300
aS'pterodactyl'
p8301
aS' scream'
p8302
aS'radio tuner'
p8303
aS'thwack'
p8304
aS'phrase'
p8305
aS'soccer match'
p8306
aS'piano ambient'
p8307
aS'cinematic drums'
p8308
aS'leave'
p8309
aS'picking'
p8310
aS'drifting'
p8311
aS'loud noise'
p8312
aS'school bell ring'
p8313
aS'distant siren'
p8314
aS'noises'
p8315
aS'park ambiance'
p8316
aS'cheetah'
p8317
aS'making love'
p8318
aS'school kids'
p8319
aS'chime bell'
p8320
aS'jingle '
p8321
aS'ambiance '
p8322
aS'clapper'
p8323
aS'indian '
p8324
aS'alarm car'
p8325
aS'church ambience'
p8326
aS'lamp buzz'
p8327
aS'children playing '
p8328
aS'laugh child'
p8329
aS'background tv'
p8330
aS'night nature'
p8331
aS'car slow'
p8332
aS'kamehameha'
p8333
aS'bike ring'
p8334
aS'wall clock'
p8335
aS'beach people'
p8336
aS'wather'
p8337
aS'bowling pins'
p8338
aS'wave sea'
p8339
aS'free music'
p8340
aS'winch'
p8341
aS'game development'
p8342
aS'wind snow'
p8343
aS'girl breath'
p8344
aS'winter forest'
p8345
aS'hint'
p8346
aS'vine'
p8347
aS'hood'
p8348
aS'woman angry'
p8349
aS'fail jingle'
p8350
aS'traffic horn'
p8351
aS'field '
p8352
aS'wood chair'
p8353
aS'grillo'
p8354
aS'traditional'
p8355
aS'groans'
p8356
aS'flutes'
p8357
aS'folding paper'
p8358
aS'hangar'
p8359
aS'heart machine'
p8360
aS'footstep snow'
p8361
aS'fire burst'
p8362
aS'hovering'
p8363
aS'forward'
p8364
aS'alert tone'
p8365
aS'fire truck siren'
p8366
aS'80s music'
p8367
aS'germany'
p8368
aS'8bit loop'
p8369
aS'hydrolic'
p8370
aS'ambient loop music'
p8371
aS'girl sing'
p8372
aS'american football'
p8373
aS'grillos'
p8374
aS'soothing music'
p8375
aS'van door'
p8376
aS'hand claps'
p8377
aS'sport whistle'
p8378
aS'water river'
p8379
aS'hand gun'
p8380
aS'sled'
p8381
aS'vegetable'
p8382
aS'football cheering'
p8383
aS'steps room'
p8384
aS'wham'
p8385
aS'hip hop music'
p8386
aS'sigh '
p8387
aS'zipline'
p8388
aS'finish him'
p8389
aS'shortwave radio'
p8390
aS'ui sound'
p8391
aS'horror soundtrack'
p8392
aS'patter'
p8393
aS'wings '
p8394
aS'horse cart'
p8395
aS'rauschen'
p8396
aS'wood footstep'
p8397
aS'sad sounds'
p8398
aS'tv ambience'
p8399
aS'printing'
p8400
aS'tv channels'
p8401
aS'pumpkin'
p8402
aS'voices '
p8403
aS'radio change'
p8404
aS'usb'
p8405
aS'radio off'
p8406
aS'attic'
p8407
aS'paintball'
p8408
aS'bass house'
p8409
aS'risers'
p8410
aS'animal breathing'
p8411
aS'rock intro'
p8412
aS'blabla'
p8413
aS'oral sex'
p8414
aS'blowing air'
p8415
aS'piano loops'
p8416
aS'angry yelling'
p8417
aS'old lady'
p8418
aS'book fall'
p8419
aS'scary movie'
p8420
aS'battle drums'
p8421
aS'cigarette '
p8422
aS'carro'
p8423
aS'cloth wind'
p8424
aS'lightning bolt'
p8425
aS'cocktail party'
p8426
aS'loud sex'
p8427
aS'chop wood'
p8428
aS'notebook'
p8429
aS'conch shell'
p8430
aS'male breath'
p8431
aS'churchbells'
p8432
aS'man humming'
p8433
aS'jog'
p8434
aS'knife chop'
p8435
aS'metal bowl'
p8436
aS'metal grinding'
p8437
aS'landing '
p8438
aS'new year'
p8439
aS'crisp'
p8440
aS'layered'
p8441
aS'clonk'
p8442
aS'lens'
p8443
aS'ebm'
p8444
aS'lights out'
p8445
aS'deep boom'
p8446
aS'kick drums'
p8447
aS'door sound'
p8448
aS'nostalgia'
p8449
aS'company'
p8450
aS'marriage'
p8451
aS'clamp'
p8452
aS'men '
p8453
aS'drum music'
p8454
aS'metallic hit'
p8455
aS'duck '
p8456
aS'james brown'
p8457
aS'chair drag'
p8458
aS'mri'
p8459
aS'007'
p8460
aS'frame'
p8461
aS'languages'
p8462
aS'accapella'
p8463
aS'fireman'
p8464
aS'laughing man'
p8465
aS'16bit'
p8466
aS' game voice over'
p8467
aS'sough'
p8468
aS'70s'
p8469
aS'happy new year'
p8470
aS'space noise'
p8471
aS'air pump'
p8472
aS'hip hop drum loop'
p8473
aS'spa'
p8474
aS'footsteps slow'
p8475
aS'suv'
p8476
aS'hospital sound'
p8477
aS'timbale'
p8478
aS'atmosphere '
p8479
aS'stork'
p8480
aS'audience clap'
p8481
aS'successful'
p8482
aS'band-music'
p8483
aS'sniffling'
p8484
aS'angry sound'
p8485
aS'thunder crash'
p8486
aS'cartoon steps'
p8487
aS'wall break'
p8488
aS'car smash'
p8489
aS'waves lapping'
p8490
aS'button game'
p8491
aS'vegetables'
p8492
aS'bird cry'
p8493
aS'wheezing'
p8494
aS'bike riding'
p8495
aS'wipers'
p8496
aS'beach wind'
p8497
aS'trees rustling'
p8498
aS'animal run'
p8499
aS'traffic sounds'
p8500
aS'birds nature'
p8501
aS'walking up stairs'
p8502
aS'birds park'
p8503
aS'try again'
p8504
aS'beach seagulls'
p8505
aS'walk forest'
p8506
aS'boxing match'
p8507
aS'party blower'
p8508
aS'broken bottle'
p8509
aS'ragga'
p8510
aS'burglar alarm'
p8511
aS'regen'
p8512
aS'butcher'
p8513
aS'scottish'
p8514
aS'savannah'
p8515
aS'psycho scream'
p8516
aS'open close door'
p8517
aS'reminder'
p8518
aS'old horn'
p8519
aS'ocean ambience'
p8520
aS'rubber stamp'
p8521
aS'piano beat'
p8522
aS'pig scream'
p8523
aS'bamboo flute'
p8524
aS'plaza'
p8525
aS'bass music'
p8526
aS'powerful'
p8527
aS'beauty'
p8528
aS'river water'
p8529
aS'bird ambience'
p8530
aS'pulsating'
p8531
aS'angelical'
p8532
aS'punched'
p8533
aS'bomb blast'
p8534
aS'office door'
p8535
aS'boxing '
p8536
aS'rain city'
p8537
aS'bus driving'
p8538
aS'record scratch '
p8539
aS'clik'
p8540
aS'ambience house'
p8541
aS'nyan cat'
p8542
aS'credit card'
p8543
aS'alarma'
p8544
aS'person running'
p8545
aS'crowd chatter'
p8546
aS'laughting'
p8547
aS'chewing '
p8548
aS'lazy'
p8549
aS'dark forest'
p8550
aS'invasion'
p8551
aS'dentist drill'
p8552
aS'industrial drone'
p8553
aS'dining'
p8554
aS'keys door'
p8555
aS'disconnect'
p8556
aS'locking'
p8557
aS'chor'
p8558
aS'mop'
p8559
aS'commotion'
p8560
aS'mutter'
p8561
aS'communication'
p8562
aS'next level'
p8563
aS'drinking '
p8564
aS'male moaning'
p8565
aS'church door'
p8566
aS'i hate you'
p8567
aS'wallet'
p8568
aS'metal can'
p8569
aS'walrus'
p8570
aS'monster truck'
p8571
aS'warning beep'
p8572
aS'musical saw'
p8573
aS'touch screen'
p8574
aS'jungle night'
p8575
aS'transfer'
p8576
aS'gas fire'
p8577
aS'wind winter'
p8578
aS'go away'
p8579
aS'vinyle'
p8580
aS'falling paper'
p8581
aS'train steam'
p8582
aS'happy beat'
p8583
aS'volume'
p8584
aS'happy kids'
p8585
aS'spy music'
p8586
aS'happy scream'
p8587
aS'submerge'
p8588
aS'headache'
p8589
aS'squeak metal'
p8590
aS'hearthbeat'
p8591
aS'slow car'
p8592
aS'high tone'
p8593
aS' sigh'
p8594
aS'short fart'
p8595
aS'tank '
p8596
aS'tanpura'
p8597
aS'siren alarm'
p8598
aS'time lapse'
p8599
aS'rally car'
p8600
aS'skates'
p8601
aS'psy bass'
p8602
aS'scuttle'
p8603
aS'o'
aS'stutter'
p8604
aS'people whispering'
p8605
aS'ta-da'
p8606
aS'person fall'
p8607
aS'tingle'
p8608
aS'old vinyl'
p8609
aS'squeez'
p8610
aS'phone noise'
p8611
aS'steps on wood'
p8612
aS'rock band'
p8613
aS'slow drum'
p8614
aS'rope pull'
p8615
aS'suspicious'
p8616
aS'sad trumpet'
p8617
aS'sweep down'
p8618
aS'sand fall'
p8619
aS'teletype'
p8620
aS'scary background'
p8621
aS'tenor sax'
p8622
aS'oo'
p8623
aS'throw paper'
p8624
aS'bald eagle'
p8625
aS'french '
p8626
aS'acustic guitar'
p8627
aS'bell tone'
p8628
aS'funky bass'
p8629
aS'airport chime'
p8630
aS'bottle hit'
p8631
aS'hart'
p8632
aS'broken machine'
p8633
aS'ghost whisper'
p8634
aS'canon fire'
p8635
aS'facebook notification'
p8636
aS'vaccum'
p8637
aS'gleam'
p8638
aS'whee'
p8639
aS'guitare'
p8640
aS'woman speaking'
p8641
aS'happy laugh'
p8642
aS'womb'
p8643
aS'footstep gravel'
p8644
aS' transition'
p8645
aS'hit stone'
p8646
aS'walking on concrete'
p8647
aS'horror atmosphere'
p8648
aS'unzip'
p8649
aS'horror intro'
p8650
aS'country side'
p8651
aS'horror whisper'
p8652
aS'dj sounds'
p8653
aS'fade '
p8654
aS'egg shaker'
p8655
aS'indian drum'
p8656
aS'eagles'
p8657
aS'indian drums'
p8658
aS'dark sound'
p8659
aS'logo sound'
p8660
aS'demon '
p8661
aS'madness'
p8662
aS'city background'
p8663
aS'mafia'
p8664
aS'droplets'
p8665
aS'muffled voice'
p8666
aS'drops water'
p8667
aS'multisample'
p8668
aS'mysterious music'
p8669
aS'marsh'
p8670
aS'meep'
p8671
aS'melodica'
p8672
aS'metal chair'
p8673
aS'mechanical door'
p8674
aS'metal scream'
p8675
aS'jamaica'
p8676
aS'monkey sounds'
p8677
aS'motocycle'
p8678
aS'lamp switch'
p8679
aS'night birds'
p8680
aS'laugh people'
p8681
aS'160 bpm'
p8682
aS'level completed'
p8683
aS'1 2 3 4'
p8684
aS'lift music'
p8685
aS'air siren'
p8686
aS'lion roaring'
p8687
aS'crashes'
p8688
aS'placing'
p8689
aS'loopable'
p8690
aS' crowd'
p8691
aS'platform'
p8692
aS'kids crying'
p8693
aS'dab'
p8694
aS'politics'
p8695
aS'machine noise'
p8696
aS'dulcimer'
p8697
aS'power out'
p8698
aS'jewish'
p8699
aS'child singing'
p8700
aS'punch hit'
p8701
aS'kite'
p8702
aS'engine running'
p8703
aS'people speaking'
p8704
aS'men laugh'
p8705
aS'space travel'
p8706
aS'reception bell'
p8707
aS'metal plate'
p8708
aS'synth chord'
p8709
aS'rio'
p8710
aS'meteorite'
p8711
aS'shutter sound'
p8712
aS'rise up'
p8713
aS'mickey mouse'
p8714
aS'stadium '
p8715
aS'rock drop'
p8716
aS'jumping '
p8717
aS'start race'
p8718
aS'sand step'
p8719
aS'neighbourhood'
p8720
aS'stabs'
p8721
aS'outdoor ambiance'
p8722
aS'intro song'
p8723
aS'shoo'
p8724
aS'sci fi beep'
p8725
aS'seesaw'
p8726
aS'piggy bank'
p8727
aS'smokebomb99'
p8728
aS'fast run'
p8729
aS'tambores'
p8730
aS'flag waving'
p8731
aS'teenager'
p8732
aS'gas explosion'
p8733
aS'time '
p8734
aS'hit marker'
p8735
aS'times up'
p8736
aS'ferris wheel'
p8737
aS'sea side'
p8738
aS'glass cheers'
p8739
aS'baby crying '
p8740
aS'halt'
p8741
aS'bay'
p8742
aS'hammond'
p8743
aS' bells'
p8744
aS'heater'
p8745
aS'burning paper'
p8746
aS'finger cymbal'
p8747
aS'burger'
p8748
aS'footsteps leaves'
p8749
aS'warn'
p8750
aS'hungry stomach'
p8751
aS'warning siren'
p8752
aS'hydraulic door'
p8753
aS'typing keyboard'
p8754
aS'xxx'
p8755
aS'window shatter'
p8756
aS'use'
p8757
aS'ups'
p8758
aS'action loop'
p8759
aS'truck door'
p8760
aS'afro'
p8761
aS'what '
p8762
aS'gang'
p8763
aS'lyre'
p8764
aS'vikings'
p8765
aS'hindi'
p8766
aS'music dance'
p8767
aS'woman giggle'
p8768
aS'hit ball'
p8769
aS'native american flute'
p8770
aS'wind birds'
p8771
aS'hunger'
p8772
aS'jet pack'
p8773
aS'wood stick'
p8774
aS'gentle music'
p8775
aS'knife sharpening'
p8776
aS'volkswagen'
p8777
aS'flashes'
p8778
aS'military '
p8779
aS'tremolo'
p8780
aS'ghoul'
p8781
aS'military music'
p8782
aS'cuckoo '
p8783
aS'glass cracking'
p8784
aS'mobile phone ringing'
p8785
aS'dagger'
p8786
aS'face hit'
p8787
aS'motorbike '
p8788
aS'dumpster'
p8789
aS'hard punch'
p8790
aS'la la la'
p8791
aS'eating apple'
p8792
aS'explore'
p8793
aS'neck break'
p8794
aS'cell phone beep'
p8795
aS'harmonics'
p8796
aS'neon '
p8797
aS'cup on table'
p8798
aS'harp strum'
p8799
aS'laughing children'
p8800
aS'deep bell'
p8801
aS'fly '
p8802
aS'digital beeps'
p8803
aS'horses galloping'
p8804
aS'coins '
p8805
aS'asphalt'
p8806
aS'dog bark '
p8807
aS'bar atmosphere'
p8808
aS'commentator'
p8809
aS'cartoon footsteps'
p8810
aS'earthquake '
p8811
aS'books falling'
p8812
aS'electro loop'
p8813
aS'cavalry'
p8814
aS'emergency siren'
p8815
aS'power outage'
p8816
aS'shrek'
p8817
aS'psytrance kick'
p8818
aS'speed car'
p8819
aS'radio waves'
p8820
aS'spining'
p8821
aS'rain street'
p8822
aS'summer field'
p8823
aS'reese'
p8824
aS'thief'
p8825
aS'pang'
p8826
aS'spring birds'
p8827
aS'scarry'
p8828
aS'slide down'
p8829
aS'sci fi gun'
p8830
aS'slaps'
p8831
aS'strangle'
p8832
aS'tam tam'
p8833
aS'telephone pick up'
p8834
aS'thrown'
p8835
aS'ambient park'
p8836
aS'skidding'
p8837
aS'ambulence'
p8838
aS'space rocket'
p8839
aS'air compressor'
p8840
aS'styrofoam'
p8841
aS' '
aS'sleigh'
p8842
aS'airplane taking off'
p8843
aS'stage '
p8844
aS'pirate ship'
p8845
aS'laughter '
p8846
aS'steak'
p8847
aS'play button'
p8848
aS'jubel'
p8849
aS'slipper'
p8850
aS'pouring beer'
p8851
aS'nodens'
p8852
aS'street people'
p8853
aS'row'
p8854
aS'man orgasm'
p8855
aS'sudden stop'
p8856
aS'orb'
p8857
aS'microwave beep'
p8858
aS'simple music'
p8859
aS'radio channel'
p8860
aS'monkey sound'
p8861
aS'swooshing'
p8862
aS'relaxed'
p8863
aS'movie sounds'
p8864
aS'tap dancing'
p8865
aS'retard'
p8866
aS'muffled '
p8867
aS'techno sounds'
p8868
aS'robbery'
p8869
aS'laser cannon'
p8870
aS'teen'
p8871
aS'rocking'
p8872
aS'newborn'
p8873
aS'tibetan bowls'
p8874
aS'rock water'
p8875
aS'washboard'
p8876
aS'rope snap'
p8877
aS'yard'
p8878
aS' running'
p8879
aS'trap drums'
p8880
aS'childrens'
p8881
aS'wooden hit'
p8882
aS'cowboys'
p8883
aS'turn on light'
p8884
aS'chior'
p8885
aS'tv buzz'
p8886
aS'desert sounds'
p8887
aS'transition whoosh'
p8888
aS'crushed'
p8889
aS'harvest'
p8890
aS'cinematic piano'
p8891
aS'home ambience'
p8892
aS'distorsion'
p8893
aS'excite'
p8894
aS'drum kits'
p8895
aS'flauta'
p8896
aS'drum samples'
p8897
aS'glass impact'
p8898
aS'end call'
p8899
aS'group scream'
p8900
aS'cascade'
p8901
aS'guitar tuning'
p8902
aS'cartoon throw'
p8903
aS'gush'
p8904
aS'bat screech'
p8905
aS'hands up'
p8906
aS'bone cracking'
p8907
aS'hardtek'
p8908
aS'animal steps'
p8909
aS'high pitch '
p8910
aS'beach birds'
p8911
aS'f16'
p8912
aS'bpm'
p8913
aS'hiphop '
p8914
aS'butt'
p8915
aS'hip hop piano'
p8916
aS'camera lens'
p8917
aS'hip hop sample'
p8918
aS'canon shot'
p8919
aS'capture'
p8920
aS'amb'
p8921
aS'background song'
p8922
aS'ai'
p8923
aS'bosque'
p8924
aS'air traffic'
p8925
aS'brawl'
p8926
aS'alarme'
p8927
aS'game show music'
p8928
aS'slamming'
p8929
aS' lightning'
p8930
aS'fanfare '
p8931
aS'thank'
p8932
aS'lite'
p8933
aS'garbage can'
p8934
aS'shock '
p8935
aS'loop rap'
p8936
aS'gypsy'
p8937
aS'ska'
p8938
aS'lsd'
p8939
aS'flesh hit'
p8940
aS'stun gun'
p8941
aS'navigation'
p8942
aS'glitch sound'
p8943
aS'subway station'
p8944
aS'lost game'
p8945
aS'guitar plug'
p8946
aS'singing '
p8947
aS'jack hammer'
p8948
aS'explosion fire'
p8949
aS'snip'
p8950
aS'metal punch'
p8951
aS'happy songs'
p8952
aS'minecraft '
p8953
aS'clinking glasses'
p8954
aS'monster die'
p8955
aS'divine'
p8956
aS'motor engine'
p8957
aS'electrocute'
p8958
aS'lake waves'
p8959
aS'danger alarm'
p8960
aS'music bed'
p8961
aS'comedy sounds'
p8962
aS'muttering'
p8963
aS'drop down'
p8964
aS'industrial beat'
p8965
aS'droping'
p8966
aS'israel'
p8967
aS'drop in water'
p8968
aS'old machine'
p8969
aS'computing'
p8970
aS'plastic drop'
p8971
aS'two people talking'
p8972
aS'playa'
p8973
aS'whistle fall'
p8974
aS'old bell'
p8975
aS'truck start'
p8976
aS'po'
p8977
aS'train inside'
p8978
aS'polizei'
p8979
aS'violin sad'
p8980
aS'robin hood'
p8981
aS'prairie'
p8982
aS'package'
p8983
aS'open chest'
p8984
aS'queef'
p8985
aS'persecution'
p8986
aS'oriental music'
p8987
aS'online'
p8988
aS'ost'
p8989
aS'paper tearing'
p8990
aS'piccolo'
p8991
aS'picking up phone'
p8992
aS'school bells'
p8993
aS'water cave'
p8994
aS'pub ambience'
p8995
aS'young girl'
p8996
aS'quiet forest'
p8997
aS'whistle referee'
p8998
aS'ready set go'
p8999
aS'wood creek'
p9000
aS'rewind sound'
p9001
aS'wood walk'
p9002
aS'rock kick'
p9003
aS'wah guitar'
p9004
aS'rodeo'
p9005
aS'walk concrete'
p9006
aS'phone text'
p9007
aS'soft thud'
p9008
aS'baby happy'
p9009
aS'rolling chair'
p9010
aS'serving water'
p9011
aS'ba dum tss'
p9012
aS'paper wind'
p9013
aS'start sound'
p9014
aS'breaking bones'
p9015
aS'sayings'
p9016
aS'slow wind'
p9017
aS'bd'
p9018
aS'school bell '
p9019
aS'swing music'
p9020
aS'animal walk'
p9021
aS'ambient sounds'
p9022
aS'synth melody'
p9023
aS'breathe out'
p9024
aS'abc'
p9025
aS'telephon'
p9026
aS'brid'
p9027
aS'ac'
p9028
aS'shotgun cock'
p9029
aS'building falling'
p9030
aS'air gun'
p9031
aS'three'
p9032
aS'bus station'
p9033
aS'cow '
p9034
aS'car music'
p9035
aS'criminal'
p9036
aS'car on gravel'
p9037
aS'crowd shock'
p9038
aS'gate closing'
p9039
aS'easy listening'
p9040
aS'gatling gun'
p9041
aS'cymbal reverse'
p9042
aS'hacking'
p9043
aS'deep drone'
p9044
aS'hit by car'
p9045
aS'dinner bell'
p9046
aS'gloomy'
p9047
aS'donald duck'
p9048
aS'gongs'
p9049
aS'dream '
p9050
aS'guitar jazz'
p9051
aS'eagle cry'
p9052
aS'happy music '
p9053
aS'electronic door'
p9054
aS'explosion game'
p9055
aS'intruder'
p9056
aS'hearbeat'
p9057
aS'italian '
p9058
aS'footsteps fast'
p9059
aS'locust'
p9060
aS'finland'
p9061
aS'morning sounds'
p9062
aS'horror theme'
p9063
aS'nail gun'
p9064
aS'horse steps'
p9065
aS'new zealand'
p9066
aS'fire flame'
p9067
aS'magical '
p9068
aS'fire ignition'
p9069
aS'man groan'
p9070
aS'metal crack'
p9071
aS'minimal techno'
p9072
aS'monastery'
p9073
aS'monster step'
p9074
aS'ladies'
p9075
aS'lady'
p9076
aS'lamp '
p9077
aS'japanese voice -american'
p9078
aS'lantern'
p9079
aS'fireworks whistle'
p9080
aS'keybord'
p9081
aS'funny loop'
p9082
aS'lo-fi'
p9083
aS'gasp female'
p9084
aS'looney tunes'
p9085
aS'glup'
p9086
aS'make up'
p9087
aS'flapping bird'
p9088
aS'music fun'
p9089
aS'fencing'
p9090
aS'meditation music'
p9091
aS'girlfriend'
p9092
aS'mechanical keyboard'
p9093
aS'fiction'
p9094
aS'mechanical click'
p9095
aS'farming'
p9096
aS'metal dropping'
p9097
aS'hall ambience'
p9098
aS'masturbate'
p9099
aS'film set'
p9100
aS'microphone drop'
p9101
aS'evil laughing'
p9102
aS'mhm'
p9103
aS'female choir'
p9104
aS'monster footsteps'
p9105
aS'hot air balloon'
p9106
aS'jungle ambient'
p9107
aS'hotel lobby'
p9108
aS'large splash'
p9109
aS'evil laught'
p9110
aS'lark'
p9111
aS'alcohol'
p9112
aS'train brakes'
p9113
aS'industrial ambience'
p9114
aS'ambience street'
p9115
aS'water sink'
p9116
aS'parrots'
p9117
aS'ambient dark'
p9118
aS'wave '
p9119
aS'playful music'
p9120
aS'1950s'
p9121
aS'wave splash'
p9122
aS'outside night'
p9123
aS'airplane crash'
p9124
aS'whats up'
p9125
aS'power cut'
p9126
aS'airplanes'
p9127
aS'whirlpool'
p9128
aS'river sound'
p9129
aS' whoosh'
p9130
aS'satisfied'
p9131
aS'wind fast'
p9132
aS'pedestrian'
p9133
aS'vignette'
p9134
aS'pearl'
p9135
aS'woods ambience'
p9136
aS'relaxed music'
p9137
aS'worry'
p9138
aS'ocean sound'
p9139
aS'creepy voices'
p9140
aS'old '
p9141
aS'crowd outdoor'
p9142
aS'pie'
p9143
aS'cruise ship'
p9144
aS'skype call'
p9145
aS'dream harp'
p9146
aS'strings '
p9147
aS'epic sounds'
p9148
aS'swimming '
p9149
aS'epic orchestra'
p9150
aS'switch click'
p9151
aS'cinematic whoosh'
p9152
aS'splash pool'
p9153
aS'dings'
p9154
aS'spray bottle'
p9155
aS'dirty'
p9156
aS'squirting'
p9157
aS'distant train'
p9158
aS'se'
p9159
aS'combustion'
p9160
aS'streetcar'
p9161
aS'door rattle'
p9162
aS'submarine '
p9163
aS'doink'
p9164
aS'surdo'
p9165
aS'church bells '
p9166
aS'smart phone'
p9167
aS'cool sound'
p9168
aS'teaser'
p9169
aS'clean guitar'
p9170
aS'textile'
p9171
aS'au'
p9172
aS'sniper rifle'
p9173
aS'balance'
p9174
aS'thought'
p9175
aS'bar ambient'
p9176
aS'tide'
p9177
aS'bare foot'
p9178
aS'box fall'
p9179
aS'birds flap'
p9180
aS'blood hit'
p9181
aS'boardwalk'
p9182
aS'boing '
p9183
aS'boom bass'
p9184
aS'boss fight'
p9185
aS'button pressed'
p9186
aS'cafe '
p9187
aS'canada'
p9188
aS'arrow impact'
p9189
aS'cats meowing'
p9190
aS'cb radio'
p9191
aS'fast '
p9192
aS'auch'
p9193
aS'get hit'
p9194
aS'baby music'
p9195
aS'highlight'
p9196
aS'angry music'
p9197
aS'ghostly'
p9198
aS'baroque'
p9199
aS'guitar loops'
p9200
aS' bass'
p9201
aS'happy jingle'
p9202
aS'car wind'
p9203
aS'fall wood'
p9204
aS'cartoon fight'
p9205
aS'factory sounds'
p9206
aS'beer pour'
p9207
aS'forest bird'
p9208
aS'bite '
p9209
aS'fire cracking'
p9210
aS'blow out'
p9211
aS'faded'
p9212
aS'boom sound'
p9213
aS'selva'
p9214
aS'alien ship'
p9215
aS'bottle rocket'
p9216
aS'toggle'
p9217
aS'achieve'
p9218
aS'box falling'
p9219
aS'steps metal'
p9220
aS'lazers'
p9221
aS'bullet time'
p9222
aS'sexy girl'
p9223
aS'keyboard '
p9224
aS'canvas'
p9225
aS'swing '
p9226
aS'lights off'
p9227
aS'car doors'
p9228
aS'swords clashing'
p9229
aS'mp5'
p9230
aS'caress'
p9231
aS'simpsons'
p9232
aS'music cartoon'
p9233
aS'car engine stop'
p9234
aS'slashing'
p9235
aS'making out'
p9236
aS'shelf'
p9237
aS'inflating'
p9238
aS'soft footsteps'
p9239
aS'man sex'
p9240
aS'country '
p9241
aS'kindergarten'
p9242
aS'clicker'
p9243
aS'menu '
p9244
aS'country song'
p9245
aS'metal bucket'
p9246
aS'criket'
p9247
aS'metal drag'
p9248
aS'crowded room'
p9249
aS'monster laugh'
p9250
aS'cup table'
p9251
aS'jungle animals'
p9252
aS'dj intro'
p9253
aS'latino'
p9254
aS'dunk'
p9255
aS'warcraft'
p9256
aS'efect'
p9257
aS'tribal chant'
p9258
aS'cup '
p9259
aS'water slide'
p9260
aS'deep beat'
p9261
aS'wing flapping'
p9262
aS'destroyed'
p9263
aS'women crying'
p9264
aS'censorship'
p9265
aS'wooden box'
p9266
aS'dog sound'
p9267
aS'walk gravel'
p9268
aS'doorbell '
p9269
aS'tv turning off'
p9270
aS'electrical buzz'
p9271
aS'train arriving'
p9272
aS'end credits'
p9273
aS'poison'
p9274
aS'energy blast'
p9275
aS'office telephone'
p9276
aS'cotton'
p9277
aS'rat squeak'
p9278
aS'coucou'
p9279
aS'pull out'
p9280
aS'respirator'
p9281
aS'orgasme'
p9282
aS'robinhood76'
p9283
aS'paper fold'
p9284
aS'running people'
p9285
aS'sail boat'
p9286
aS'creak wood'
p9287
aS'parque'
p9288
aS'crowd booing'
p9289
aS'plunk'
p9290
aS'dusk'
p9291
aS'punch fight'
p9292
aS'cinematic swoosh'
p9293
aS'red carpet'
p9294
aS'dance beat'
p9295
aS'opening '
p9296
aS'depressing'
p9297
aS'retro '
p9298
aS'coffee '
p9299
aS'robotic '
p9300
aS'dieing'
p9301
aS'romantic '
p9302
aS'disappoint'
p9303
aS'photo shoot'
p9304
aS'collect coin'
p9305
aS'overwatch'
p9306
aS'cheer '
p9307
aS'sand wind'
p9308
aS'dog footsteps'
p9309
aS'school bell ringing'
p9310
aS'drawbridge'
p9311
aS'pierce'
p9312
aS'clapping hands'
p9313
aS'schrei'
p9314
aS'computer startup'
p9315
aS'free fall'
p9316
aS'announcment'
p9317
aS' electricity'
p9318
aS'funky music'
p9319
aS'bakery'
p9320
aS'ambient outside'
p9321
aS'holy '
p9322
aS'car seat'
p9323
aS'accoustic'
p9324
aS'gente'
p9325
aS'car collision'
p9326
aS'african voice'
p9327
aS'glass tap'
p9328
aS'bellows'
p9329
aS'airplane ding'
p9330
aS' flute'
p9331
aS'blood dripping'
p9332
aS'feel good'
p9333
aS'boton'
p9334
aS'hi hat loop'
p9335
aS'cafe music'
p9336
aS'foot steps wood'
p9337
aS'calming music'
p9338
aS'footsteps wooden floor'
p9339
aS'canteen'
p9340
aS'footstep tile'
p9341
aS'caterpillar'
p9342
aS'fire cracker'
p9343
aS'water dropping'
p9344
aS'hunger games'
p9345
aS'wind bells'
p9346
aS'taiko drum'
p9347
aS'window close'
p9348
aS'starcraft'
p9349
aS'village '
p9350
aS'sifi'
p9351
aS'wohoo'
p9352
aS'sword swipe'
p9353
aS'vinyl static'
p9354
aS'sheet metal'
p9355
aS'violin note'
p9356
aS'single clap'
p9357
aS'violon'
p9358
aS'theramin'
p9359
aS'walking on pavement'
p9360
aS'snow crunch'
p9361
aS'walking heels'
p9362
aS'terror '
p9363
aS'walking down stairs'
p9364
aS' laughter'
p9365
aS'leon'
p9366
aS'lord of the rings'
p9367
aS'lyrics'
p9368
aS'no scream'
p9369
aS'low tone'
p9370
aS'jet take off'
p9371
aS'kitchen timer'
p9372
aS'mellotron'
p9373
aS'mess'
p9374
aS'metal clunk'
p9375
aS'metal crush'
p9376
aS'monster steps'
p9377
aS'intro piano'
p9378
aS'ka-ching'
p9379
aS'nes'
p9380
aS'indicator'
p9381
aS'polishing'
p9382
aS'linn'
p9383
aS'oven timer'
p9384
aS'jeans'
p9385
aS'paddling'
p9386
aS'looping'
p9387
aS'rock n roll'
p9388
aS'native drum'
p9389
aS'photo camera'
p9390
aS'navy'
p9391
aS'oscillating '
p9392
aS'majestic'
p9393
aS'piano e'
p9394
aS'man hit'
p9395
aS'parakeet'
p9396
aS'meal'
p9397
aS'waltz piano'
p9398
aS'adele'
p9399
aS'indian flute'
p9400
aS'weasel'
p9401
aS'1234'
p9402
aS' moan'
p9403
aS'velocity'
p9404
aS'creepy noises'
p9405
aS'monster sounds'
p9406
aS'white sound'
p9407
aS'crickets '
p9408
aS'night vision'
p9409
aS'woman yell'
p9410
aS'crowbar'
p9411
aS'laughing woman'
p9412
aS'wood scratch'
p9413
aS'crowd cheering '
p9414
aS'vocal loop'
p9415
aS'dialup'
p9416
aS'tv interference'
p9417
aS'electronic fx'
p9418
aS'toy gun'
p9419
aS'death music'
p9420
aS'usa'
p9421
aS'demons'
p9422
aS'shower curtain'
p9423
aS'doorbel'
p9424
aS'summer wind'
p9425
aS'door locking'
p9426
aS'slide in'
p9427
aS'dream music'
p9428
aS'shy'
p9429
aS'computer crash'
p9430
aS'steam machine'
p9431
aS'drop sound'
p9432
aS'stock market'
p9433
aS'conga loop'
p9434
aS'silent hill'
p9435
aS'dublin'
p9436
aS'summer '
p9437
aS'cell phone message'
p9438
aS'sword impact'
p9439
aS'electric drill'
p9440
aS'sewers'
p9441
aS'electric fan'
p9442
aS'automatic doors'
p9443
aS'expolsion'
p9444
aS'bad joke'
p9445
aS'funk '
p9446
aS'barber'
p9447
aS'gale'
p9448
aS'bass c'
p9449
aS'galaga'
p9450
aS'cartoon effect'
p9451
aS'game sound effect'
p9452
aS'car starts'
p9453
aS'generic'
p9454
aS'applouse'
p9455
aS'growth'
p9456
aS'bmx'
p9457
aS'homer'
p9458
aS'bottle clink'
p9459
aS'girl giggling'
p9460
aS'break window'
p9461
aS'fling'
p9462
aS'buh'
p9463
aS'glitch beat'
p9464
aS'burning wood'
p9465
aS'father'
p9466
aS'buzzard'
p9467
aS'goat scream'
p9468
aS'car run'
p9469
aS'flock of birds'
p9470
aS'cartoon song'
p9471
aS'grand'
p9472
aS'guitar notes'
p9473
aS'guitar smash'
p9474
aS'eureka'
p9475
aS'heavy bass'
p9476
aS'hi hat '
p9477
aS'horror drone'
p9478
aS'horror effects'
p9479
aS'horror stab'
p9480
aS'hot rod'
p9481
aS'house ambient'
p9482
aS'female hello'
p9483
aS'huff'
p9484
aS'arms'
p9485
aS'female no'
p9486
aS'banging on door'
p9487
aS'firewood'
p9488
aS'barbeque'
p9489
aS'gain'
p9490
aS'car signal'
p9491
aS'game music '
p9492
aS'car ride'
p9493
aS'helicopters'
p9494
aS'busy traffic'
p9495
aS'icon'
p9496
aS'beatles'
p9497
aS'german voice'
p9498
aS'beat music'
p9499
aS'fast typing'
p9500
aS'body falls'
p9501
aS'excitment'
p9502
aS'bond'
p9503
aS'glich'
p9504
aS'animal walking'
p9505
aS'fly in'
p9506
aS'break car'
p9507
aS'feathers'
p9508
aS'bumping'
p9509
aS'high note'
p9510
aS'buoy'
p9511
aS'planets'
p9512
aS'lazer beam'
p9513
aS'calm piano'
p9514
aS'oven alarm'
p9515
aS'itch'
p9516
aS'cat pur'
p9517
aS'ramadan'
p9518
aS'loop happy'
p9519
aS'cave drips'
p9520
aS'prison cell'
p9521
aS'low tom'
p9522
aS'all'
p9523
aS'radio background'
p9524
aS'man screams'
p9525
aS'alternative'
p9526
aS'reggae drum'
p9527
aS'kinder'
p9528
aS'ambient background'
p9529
aS'rock crumble'
p9530
aS'mask'
p9531
aS'125'
p9532
aS'rotary phone'
p9533
aS'knife drop'
p9534
aS'piano background'
p9535
aS'micro'
p9536
aS'run steps'
p9537
aS'movie theme'
p9538
aS'piano riff'
p9539
aS'moving car'
p9540
aS'creak metal'
p9541
aS'nepal'
p9542
aS'clock ring'
p9543
aS'tribal '
p9544
aS'crew'
p9545
aS'water slosh'
p9546
aS'dollar'
p9547
aS'water waves'
p9548
aS'error '
p9549
aS'wooo'
p9550
aS'denmark'
p9551
aS'video game sound'
p9552
aS'coins drop'
p9553
aS'video intro'
p9554
aS'distress'
p9555
aS'womp'
p9556
aS'dog licking'
p9557
aS'train leaving'
p9558
aS'door slams'
p9559
aS'violin sound'
p9560
aS'dramatic bass'
p9561
aS'under sea'
p9562
aS'dubstep beat'
p9563
aS'vocal samples'
p9564
aS'dubstep synth'
p9565
aS'train stations'
p9566
aS'electro house'
p9567
aS'tropical forest'
p9568
aS'electrocardiogram'
p9569
aS'traffic lights'
p9570
aS'elegant'
p9571
aS'trompeta'
p9572
aS'empty space'
p9573
aS'seed'
p9574
aS'engin'
p9575
aS'sprinting'
p9576
aS'engine off'
p9577
aS'sleigh bell'
p9578
aS'chair fall'
p9579
aS'start button'
p9580
aS'slomo'
p9581
aS'sloshing'
p9582
aS'subway door'
p9583
aS'surprise sound'
p9584
aS'suspiro'
p9585
aS'shipyard'
p9586
aS'sensual'
p9587
aS'short beep'
p9588
aS'smoke puff'
p9589
aS'terrorist'
p9590
aS'snow step'
p9591
aS'tiptoe'
p9592
aS'ding sound'
p9593
aS'skydiving'
p9594
aS'eerie wind'
p9595
aS'spiders'
p9596
aS'cellphone ringtone'
p9597
aS'tablas'
p9598
aS'dark voice'
p9599
aS'taking'
p9600
aS'dinosaur '
p9601
aS'tip'
p9602
aS'door closes'
p9603
aS'summer breeze'
p9604
aS'dragon fly'
p9605
aS'summer ambience'
p9606
aS'chimes '
p9607
aS'sea bird'
p9608
aS'earthquake rumble'
p9609
aS'single beat'
p9610
aS'chug'
p9611
aS'snowfall'
p9612
aS'electric static'
p9613
aS'terminal'
p9614
aS'empty bar'
p9615
aS'time slow'
p9616
aS'enviroment'
p9617
aS'fire shot'
p9618
aS'aeropuerto'
p9619
aS'atomic'
p9620
aS'game voice'
p9621
aS'aire'
p9622
aS'ave maria'
p9623
aS'gaming music'
p9624
aS'car street'
p9625
aS'girl laughter'
p9626
aS'binaural beats'
p9627
aS'glass ping'
p9628
aS'animal '
p9629
aS'field-recording'
p9630
aS'beep boop'
p9631
aS'fields'
p9632
aS'big crowd'
p9633
aS'guitar lick'
p9634
aS'blinker'
p9635
aS'guitar c'
p9636
aS'boing boing'
p9637
aS'gun handling'
p9638
aS'apartment ambience'
p9639
aS'flanger'
p9640
aS'captain'
p9641
aS'happy girl'
p9642
aS'walk sand'
p9643
aS'happy 8bit'
p9644
aS'water gun'
p9645
aS'heartbeat slow'
p9646
aS'weapon swing'
p9647
aS'footstep carpet'
p9648
aS'weep'
p9649
aS'horrible'
p9650
aS'toy train'
p9651
aS'horror shock'
p9652
aS'wind beach'
p9653
aS'hotel room'
p9654
aS'viscous'
p9655
aS'pistol '
p9656
aS'unfold'
p9657
aS'run breath'
p9658
aS'walking steps'
p9659
aS'scramble'
p9660
aS'kling'
p9661
aS'pursuit'
p9662
aS'iphone call'
p9663
aS'race countdown'
p9664
aS'low kick'
p9665
aS'race cars'
p9666
aS'kids happy'
p9667
aS'radio dj'
p9668
aS'magic explosion'
p9669
aS'pad sound'
p9670
aS'man angry'
p9671
aS'perro'
p9672
aS'killed'
p9673
aS'persian'
p9674
aS'man scared'
p9675
aS'nya'
p9676
aS'indian vocal'
p9677
aS'rhythmic machine'
p9678
aS'knock metal'
p9679
aS'nuclear siren'
p9680
aS'mind the gap'
p9681
aS'phone off'
p9682
aS'medival'
p9683
aS'run fast'
p9684
aS'mourning'
p9685
aS'satelite'
p9686
aS'mouse trap'
p9687
aS'pigeon wings'
p9688
aS'mp3.wma '
p9689
aS'intro loop'
p9690
aS'nature night'
p9691
aS'latin music'
p9692
aS'polka'
p9693
aS'light footsteps'
p9694
aS'problem'
p9695
aS'light sound'
p9696
aS'rap '
p9697
aS'kick punch'
p9698
aS'requests'
p9699
aS'low beat'
p9700
aS'people ambience'
p9701
aS'man moaning'
p9702
aS'raggae'
p9703
aS'joke drum'
p9704
aS'people scared'
p9705
aS'metal clanking'
p9706
aS'rifle reload'
p9707
aS'knife throw'
p9708
aS'ripping paper'
p9709
aS' knock'
p9710
aS'sailing ship'
p9711
aS'metal sliding'
p9712
aS'am'
p9713
aS'soldiers marching'
p9714
aS'microwave ding'
p9715
aS'ableton'
p9716
aS'soundtracks'
p9717
aS'mobile phone ringtone'
p9718
aS'amplifier'
p9719
aS'skylark'
p9720
aS'motherfucker'
p9721
aS'achievment'
p9722
aS'surge'
p9723
aS'music festival'
p9724
aS'active'
p9725
aS'slate'
p9726
aS'creeking door'
p9727
aS'airplane announcement'
p9728
aS'squeaky floor'
p9729
aS'detroit'
p9730
aS'airplane start'
p9731
aS'steps gravel'
p9732
aS'despertador'
p9733
aS'steps water'
p9734
aS'coffee pour'
p9735
aS'slowmo'
p9736
aS'digital alarm'
p9737
aS'street traffic'
p9738
aS'chile'
p9739
aS'teleporting'
p9740
aS'dining room'
p9741
aS'terrible'
p9742
aS'diver'
p9743
aS'tibetan chant'
p9744
aS'coming'
p9745
aS'walky talky'
p9746
aS'dread'
p9747
aS'war plane'
p9748
aS'computer click'
p9749
aS'typewriting'
p9750
aS'computer room'
p9751
aS'wheel squeak'
p9752
aS'concrete hit'
p9753
aS'whimpering'
p9754
aS'dub '
p9755
aS'violin scary'
p9756
aS'chinese flute'
p9757
aS'violin solo'
p9758
aS'chinese instrument'
p9759
aS'voice singing'
p9760
aS'arabic '
p9761
aS'twister'
p9762
aS'bathroom '
p9763
aS'frightening'
p9764
aS'beatboxing'
p9765
aS'hit window'
p9766
aS'bicycle chain'
p9767
aS'glass slide'
p9768
aS'boat whistle'
p9769
aS'grating'
p9770
aS'bottle '
p9771
aS'fifa'
p9772
aS'budapest'
p9773
aS'fly bird'
p9774
aS'buttom'
p9775
aS'evolution'
p9776
aS'camera off'
p9777
aS'heart attack'
p9778
aS'can drop'
p9779
aS'heels walking'
p9780
aS'car backfire'
p9781
aS'find'
p9782
aS'cassette player'
p9783
aS'fast clock'
p9784
aS'caveman'
p9785
aS'horror sting'
p9786
aS'human scream'
p9787
aS'passby'
p9788
aS'firework whistle'
p9789
aS'pop-up'
p9790
aS'funny melody'
p9791
aS'pelican'
p9792
aS'game boy'
p9793
aS'puppies'
p9794
aS'fried'
p9795
aS'quiet music'
p9796
aS'hey you'
p9797
aS'people noise'
p9798
aS'fail '
p9799
aS'radio on'
p9800
aS'glass water'
p9801
aS'nuts'
p9802
aS'fall grass'
p9803
aS' office'
p9804
aS'guitar sound'
p9805
aS'panic '
p9806
aS'guitar strumming'
p9807
aS'atv'
p9808
aS'alien music'
p9809
aS'fight punch'
p9810
aS'barrel organ'
p9811
aS'alright'
p9812
aS'gust wind'
p9813
aS'bass trance'
p9814
aS'8 bit song'
p9815
aS'figth'
p9816
aS'car coming'
p9817
aS'aaaa'
p9818
aS'farm sounds'
p9819
aS'bed springs'
p9820
aS'action theme'
p9821
aS'footstep dirt'
p9822
aS'bep'
p9823
aS'1'
aS'exorcism'
p9824
aS'applause cheer'
p9825
aS'airy'
p9826
aS'footsteps on carpet'
p9827
aS'beach party'
p9828
aS'jaws theme'
p9829
aS'holy sound'
p9830
aS'body drag'
p9831
aS'law and order'
p9832
aS'house bell'
p9833
aS'bottle breaking'
p9834
aS'lesbian sex'
p9835
aS'bowls'
p9836
aS'live'
p9837
aS'brushing hair'
p9838
aS' kick'
p9839
aS'burning fire'
p9840
aS'kid screaming'
p9841
aS'bus passing'
p9842
aS'male singing'
p9843
aS'war alarm'
p9844
aS'jingle music'
p9845
aS'warp speed'
p9846
aS'maya'
p9847
aS'water lake'
p9848
aS'menu sounds'
p9849
aS'vaporwave'
p9850
aS'metal crunch'
p9851
aS'tuner'
p9852
aS'missiles'
p9853
aS'wave crashing'
p9854
aS'modular synth'
p9855
aS'whale sounds'
p9856
aS'motorway'
p9857
aS'whistle soccer'
p9858
aS'laser charge'
p9859
aS'wind chimes '
p9860
aS'nature ambiance'
p9861
aS'wind sounds'
p9862
aS'neighbor'
p9863
aS'wires'
p9864
aS'latex'
p9865
aS'wooden stairs'
p9866
aS'insane laugh'
p9867
aS'wooden wheel'
p9868
aS'night woods'
p9869
aS'trap music'
p9870
aS'laughing girl'
p9871
aS'wooh'
p9872
aS'spurs'
p9873
aS' trumpet'
p9874
aS'taylor swift'
p9875
aS'underwater ambience'
p9876
aS'tik tok'
p9877
aS'zombie growl'
p9878
aS'slaughter'
p9879
aS'trashcan'
p9880
aS'slide up'
p9881
aS'walking slow'
p9882
aS'slinky'
p9883
aS'upright bass'
p9884
aS'step water'
p9885
aS'tv turning on'
p9886
aS'slow swoosh'
p9887
aS'crashing wave'
p9888
aS'swiming'
p9889
aS'crash landing'
p9890
aS'sword clang'
p9891
aS'creeky door'
p9892
aS'tap dance'
p9893
aS'drums loop'
p9894
aS'telephone tone'
p9895
aS'deep rumble'
p9896
aS'thug'
p9897
aS'digifishmusic'
p9898
aS'scratch disc'
p9899
aS'digital sounds'
p9900
aS'coldplay'
p9901
aS'collecting'
p9902
aS'doors opening'
p9903
aS'cell phone '
p9904
aS'electric music'
p9905
aS'elevator beep'
p9906
aS'sitting chair'
p9907
aS'crowed'
p9908
aS'sega'
p9909
aS'crunchy'
p9910
aS'sqeak'
p9911
aS'duh'
p9912
aS'swans'
p9913
aS'chandelier'
p9914
aS'shutters'
p9915
aS'emotional piano'
p9916
aS'stadium cheering'
p9917
aS'descent'
p9918
aS'static '
p9919
aS'desperate'
p9920
aS'static sound'
p9921
aS'digital button'
p9922
aS'slop'
p9923
aS'champagne cork'
p9924
aS'storm at sea'
p9925
aS'dog bite'
p9926
aS'suction cup'
p9927
aS'concrete steps'
p9928
aS'shop door bell'
p9929
aS'drumkit'
p9930
aS'small plane'
p9931
aS'drumsticks'
p9932
aS'swinging door'
p9933
aS'electric bass'
p9934
aS' sword'
p9935
aS'censure'
p9936
aS'tambourine loop'
p9937
aS'corsica_s'
p9938
aS'tap '
p9939
aS'exposion'
p9940
aS'plane flyby'
p9941
aS'sequence'
p9942
aS'future sounds'
p9943
aS'nut'
p9944
aS'scratching head'
p9945
aS'game soundtrack'
p9946
aS'plate '
p9947
aS'8bit explosion'
p9948
aS'glitches'
p9949
aS'paws'
p9950
aS'alarmclock'
p9951
aS'glass bowl'
p9952
aS'oven door'
p9953
aS'flip flops'
p9954
aS'pouring milk'
p9955
aS'exiting'
p9956
aS'running street'
p9957
aS'handcuff'
p9958
aS'sample pack'
p9959
aS'footsteps ground'
p9960
aS'pendulum clock'
p9961
aS'hi tech'
p9962
aS'pen on paper'
p9963
aS'forest run'
p9964
aS'pace'
p9965
aS'fast food'
p9966
aS'people outside'
p9967
aS'warning '
p9968
aS'rain on window'
p9969
aS'tying'
p9970
aS'one dance'
p9971
aS'water boil'
p9972
aS'person talking'
p9973
aS'watering plants'
p9974
aS'rings'
p9975
aS'welcome '
p9976
aS'rington'
p9977
aS'where am i'
p9978
aS'roar '
p9979
aS'wreck'
p9980
aS'orgasm woman'
p9981
aS'xbox'
p9982
aS' paper'
p9983
aS'yes!'
p9984
aS'paper folding'
p9985
aS'zero'
p9986
aS'piano d'
p9987
aS'zoom-h2n'
p9988
aS'piano do'
p9989
aS'victory trumpet'
p9990
aS'running dog'
p9991
a.