(lp1
Vmultisample
p2
aVsynthesizer
p3
aVsingle-note
p4
aVfield-recording
p5
aVdrum
p6
aVpercussion
p7
aVnoise
p8
aVloop
p9
aVvoice
p10
aVambient
p11
aVsynth
p12
aVelectronic
p13
aVbass
p14
aVambience
p15
aVwater
p16
aVsound
p17
aVbeat
p18
aVmetal
p19
aVcompmusic
p20
aVsoundscape
p21
aVcarnatic
p22
aVFender-Chroma-Polaris
p23
aVmridangam
p24
aVh4n-zoom
p25
aVicassp2013-dataset
p26
aViitm
p27
aVindian-percussion
p28
aVmridangam-stroke-dataset
p29
aVsm-58
p30
aVsnare
p31
aVprocessed
p32
aVdrone
p33
aVvelocity
p34
aVhit
p35
aVeffect
p36
aVglitch
p37
aV1-shot
p38
aVguitar
p39
aVatmosphere
p40
aVvocal
p41
aVdrums
p42
aVsfx
p43
aVnature
p44
aVfx
p45
aVspace
p46
aVmale
p47
aVgame
p48
aVmusic
p49
aVsample
p50
aVbirds
p51
aVmachine
p52
aVpad
p53
aVfemale
p54
aVkick
p55
aVsci-fi
p56
aVambiance
p57
aVexperimental
p58
aVelectro
p59
aVdigital
p60
aVhorror
p61
aVpeople
p62
aVelectric
p63
aVYamaha-CS-30L
p64
aVwind
p65
aVacoustic
p66
aVclick
p67
aVwood
p68
aVdoor
p69
aVtechno
p70
aVcity
p71
aVKorg-Z1
p72
aVpiano
p73
aVhuman
p74
aVdance
p75
aVindustrial
p76
aVspeech
p77
aVKorg-Mono-Poly
p78
aVdark
p79
aVweird
p80
aVshort
p81
aVrain
p82
aVreverb
p83
aVRoland-Jupiter-4
p84
aVcomputer
p85
aVhouse
p86
aVAkai-AX80
p87
aVcar
p88
aVmicrophone
p89
aVengine
p90
aVbackground
p91
aVsynthetic
p92
aVtrain
p93
aVfoley
p94
aVrecording
p95
aVmetallic
p96
aVstereo
p97
aVanalog
p98
aVbell
p99
aVtrance
p100
aVtalk
p101
aVtraffic
p102
aVstreet
p103
aVhard
p104
aVrhythm
p105
aVglass
p106
aVartificial
p107
aVdeep
p108
aVdistortion
p109
aVcymbal
p110
aVbird
p111
aVneumann
p112
aVRoland-JX-8P
p113
aVfootsteps
p114
aVenglish
p115
aVscary
p116
aVgood-sounds
p117
aVpabloproject
p118
aVsound-design
p119
aVpercussive
p120
aVcrowd
p121
aVradio
p122
aVclose
p123
aVwoman
p124
aVopen
p125
aVtom
p126
aVbpm
p127
aVsounds
p128
aVgirl
p129
aVspeak
p130
aVdistorted
p131
aVlo-fi
p132
aVsoundeffect
p133
aVkitchen
p134
aVsamples
p135
aVmechanical
p136
aVloops
p137
aVwalking
p138
aVmelody
p139
aVthunder
p140
aVcinematic
p141
aVecho
p142
aVbeep
p143
aVRoland-JX-3P
p144
aVfilm
p145
aVvoices
p146
aValien
p147
aVdubstep
p148
aVcreepy
p149
aVlow
p150
aVdrop
p151
aVgames
p152
aVinstrument
p153
aVrobot
p154
aVtone
p155
aVchord
p156
aVspring
p157
aVplastic
p158
aVmotor
p159
aVimpact
p160
aVbreak
p161
aVbutton
p162
aVman
p163
aVfield
p164
aVstorm
p165
aVrhythmic
p166
aVring
p167
aVeffects
p168
aVforest
p169
aVpaper
p170
aVsound-effect
p171
aVannouncement
p172
aVElektron-Analog-Four
p173
aVsteps
p174
aVfree
p175
aVtoy
p176
aVfunny
p177
aVstrange
p178
aVswitch
p179
aVkit
p180
aVsqueak
p181
aVbackground-sound
p182
aVclub
p183
aVcars
p184
aVhardcore
p185
aVtalking
p186
aVbinaural
p187
aVexplosion
p188
aVcrash
p189
aVnight
p190
aVwaves
p191
aVrequest
p192
aVremix
p193
aVamerican
p194
aVspooky
p195
aVrock
p196
aVbottle
p197
aVgun
p198
aVdrumloop
p199
aVloud
p200
aVacid
p201
aVstation
p202
aVstrings
p203
aVmovie
p204
aVRoland-HS-80
p205
aVdub
p206
aVlofi
p207
aVwave
p208
aVsea
p209
aVair
p210
aVweather
p211
aVscream
p212
aVField-Recording
p213
aVanimal
p214
aVrumble
p215
aVgeneral-noise
p216
aVharsh
p217
aVmonster
p218
aVreaktor
p219
aVrandom
p220
aVbathroom
p221
aVdelay
p222
aVevolving
p223
aVOWI
p224
aVspanish
p225
aVsub
p226
aVraw
p227
aVviolin
p228
aVretro
p229
aVwords
p230
aVsplash
p231
aVpop
p232
aVsynthesis
p233
aVRoland-SH-2
p234
aVshot
p235
aVvideogame
p236
aVbang
p237
aVfire
p238
aVfuture
p239
aVsummer
p240
aVgaming
p241
aVbirdsong
p242
aVold
p243
aVvideo-game
p244
aVabstract
p245
aVsinging
p246
aVwhistle
p247
aVunprocessed
p248
aVheavy
p249
aVrave
p250
aVbreath
p251
aVwalk
p252
aVliquid
p253
aVone-shot
p254
aVstatic
p255
aVsequence
p256
aVwooden
p257
aVhigh
p258
aVlaugh
p259
aVgranular
p260
aVbeach
p261
aVfilter
p262
aVindiedev
p263
aVphone
p264
aVclap
p265
aVarcade
p266
aVbuzz
p267
aVvideogames
p268
aVgamedev
p269
aVgamedeveloping
p270
aVindiegamedev
p271
aVbeats
p272
aVvintage
p273
aVclang
p274
aVriver
p275
aVsteel
p276
aVbleep
p277
aVsynthesized
p278
aVOberheim-Xpander
p279
aVrattle
p280
aVfloor
p281
aVhum
p282
aVLoop
p283
aVwobble
p284
aVhi-hat
p285
aVsuspense
p286
aVopening
p287
aVtap
p288
aVDSI-Tetra
p289
aVwhite-noise
p290
aVatmos
p291
aVclosing
p292
aVbells
p293
aVboom
p294
aVcampus-upf
p295
aVminimal
p296
aVstring
p297
aValarm
p298
aVatmospheric
p299
aVscratch
p300
aVstream
p301
aVDrum
p302
aVlaser
p303
aVdog
p304
aVmidi-velocity-16
p305
aVpack
p306
aVtrumpet
p307
aVreal
p308
aVnote
p309
aVfast
p310
aVidm
p311
aVpress
p312
aVbreakbeat
p313
aVorgan
p314
aVgas
p315
aVstep
p316
aVjungle
p317
aVvideo
p318
aVfootstep
p319
aVinsects
p320
aVlead
p321
aVfreaky
p322
aVbounce
p323
aVchild
p324
aVdrip
p325
aVsounddesign
p326
aVnoisy
p327
aVrobotic
p328
aVevil
p329
aVtape
p330
aVresonance
p331
aVchildren
p332
aVclean
p333
aVslow
p334
aVArturia-Microbrute
p335
aVpark
p336
aVclarinet
p337
aVSynth
p338
aVbaby
p339
aV8-bit
p340
aVcan
p341
aVmidi-velocity-32
p342
aVbassdrum
p343
aVcello
p344
aVfantasy
p345
aVflute
p346
aVdrum-loop
p347
aVscrape
p348
aVrecord
p349
aVhousehold
p350
aVelectronica
p351
aVurban
p352
aVping
p353
aVMetal
p354
aVspoken
p355
aVmix
p356
aVcreak
p357
aVbarcelona
p358
aVblip
p359
aVrunning
p360
aVcrunch
p361
aVhop
p362
aVmulti
p363
aVclicks
p364
aVcartoon
p365
aVkeyboard
p366
aVweapon
p367
aVocean
p368
aVwar
p369
aVchurch
p370
aVmorning
p371
aVmouth
p372
aVbeatbox
p373
aVthunderstorm
p374
aVFinnish-Broadcasting-Company
p375
aVSoundfx
p376
aVTehosteet
p377
aVYle
p378
aVYleisradio
p379
aVkeys
p380
aVclock
p381
aVwet
p382
aVSound
p383
aVFinland
p384
aVcrack
p385
aV120bpm
p386
aVcrickets
p387
aVfuturistic
p388
aVlondon
p389
aVsaw
p390
aVperc
p391
aVcreature
p392
aVA3
p393
aVding
p394
aV8bit
p395
aVfactory
p396
aVdub-step
p397
aVfood
p398
aVsax
p399
aVC4
p400
aVsiren
p401
aVvinyl
p402
aVporn-core
p403
aVroad
p404
aVSuomi
p405
aVsoft
p406
aVmachinery
p407
aVsnap
p408
aVmidi-velocity-80
p409
aVwhoosh
p410
aVhihat
p411
aVintro
p412
aVroom
p413
aVhiss
p414
aVgrowl
p415
aVPercussion
p416
aVfight
p417
aVwav
p418
aVghost
p419
aVhorn
p420
aVkorg
p421
aVlight
p422
aVchime
p423
aVcircuit
p424
aVhip
p425
aVsuicidity
p426
aVjazz
p427
aVtexture
p428
aVknife
p429
aVbit
p430
aVmetro
p431
aVFX
p432
aVlightning
p433
aVD3
p434
aVF3
p435
aVa
aVF4
p436
aVbox
p437
aVC5
p438
aVride
p439
aVmidi-velocity-96
p440
aVmulti-sample
p441
aVG4
p442
aVoutdoor
p443
aVVoice
p444
aVC3
p445
aVfireworks
p446
aVsong
p447
aVmidi-velocity-48
p448
aVhaunted
p449
aVtown
p450
aVmidi-velocity-64
p451
aVpipe
p452
aVsmall
p453
aVtoilet
p454
aVfart
p455
aVatmo
p456
aVBass
p457
aVmidi-note-60
p458
aVA4
p459
aVB3
p460
aVmidi-note-54
p461
aVzoom
p462
aVsweep
p463
aVG3
p464
aVwinter
p465
aVmidi-note-48
p466
aVmidi-velocity-111
p467
aVrailway
p468
aVwoodwind
p469
aVdirty
p470
aVidiophone
p471
aVcrackle
p472
aVbus
p473
aVWater
p474
aVscience-fiction
p475
aVhip-hop
p476
aVD4
p477
aVsinister
p478
aVE3
p479
aVdramatic
p480
aVspaceship
p481
aVdrama
p482
aVC2
p483
aVGame
p484
aVfall
p485
aVsubway
p486
aVmidi-note-66
p487
aVE4
p488
aVmezzoforte
p489
aVtelephone
p490
aV110
p491
aVmidi-note-72
p492
aVF5
p493
aVmidi-note-57
p494
aVDSharp3
p495
aVmidi-note-51
p496
aVtick
p497
aVB4
p498
aVC6
p499
aVeerie
p500
a.